

Microchip MPLAB XC8 Assembler V2.46 build 20240104201356 
                                                                                               Thu Sep 12 22:24:40 2024

Microchip MPLAB XC8 C Compiler v2.46 (Free license) build 20240104201356 Og1 
     1                           	processor	16F73
     2                           	pagewidth 120
     3                           	opt	flic
     4                           	psect	idataBANK0,global,class=CODE,delta=2,noexec
     5                           	psect	cinit,global,class=CODE,merge=1,delta=2
     6                           	psect	bssBANK0,global,class=BANK0,space=1,delta=1,noexec
     7                           	psect	dataBANK0,global,class=BANK0,space=1,delta=1,noexec
     8                           	psect	clrtext,global,class=CODE,delta=2
     9                           	psect	cstackCOMMON,global,class=COMMON,space=1,delta=1,noexec
    10                           	psect	cstackBANK0,global,class=BANK0,space=1,delta=1,noexec
    11                           	psect	maintext,global,class=CODE,split=1,delta=2
    12                           	psect	text1,local,class=CODE,merge=1,delta=2
    13                           	psect	text2,local,class=CODE,merge=1,delta=2
    14                           	psect	text3,local,class=CODE,merge=1,delta=2
    15                           	psect	text4,local,class=CODE,merge=1,delta=2
    16                           	psect	text5,local,class=CODE,merge=1,delta=2
    17                           	psect	text6,local,class=CODE,merge=1,delta=2
    18                           	psect	text7,local,class=CODE,merge=1,delta=2
    19                           	psect	text8,local,class=CODE,merge=1,delta=2
    20                           	psect	text9,local,class=CODE,merge=1,delta=2
    21                           	psect	text10,local,class=CODE,merge=1,delta=2
    22                           	psect	text11,local,class=CODE,merge=1,delta=2
    23                           	psect	text12,local,class=CODE,merge=1,delta=2
    24                           	psect	text13,local,class=CODE,merge=1,delta=2
    25                           	psect	text14,local,class=CODE,merge=1,delta=2
    26                           	psect	text15,local,class=CODE,merge=1,delta=2
    27                           	psect	text16,local,class=CODE,merge=1,delta=2
    28                           	psect	text17,local,class=CODE,merge=1,delta=2
    29                           	psect	text18,local,class=CODE,merge=1,delta=2
    30                           	psect	text19,local,class=CODE,merge=1,delta=2
    31                           	psect	intentry,global,class=CODE,delta=2
    32                           	psect	config,global,abs,ovrld,class=CONFIG,space=4,delta=2,noexec
    33                           	dabs	1,0x7E,2
    34     0000                     
    35                           ; Generated 12/10/2023 GMT
    36                           ; 
    37                           ; Copyright © 2023, Microchip Technology Inc. and its subsidiaries ("Microchip")
    38                           ; All rights reserved.
    39                           ; 
    40                           ; This software is developed by Microchip Technology Inc. and its subsidiaries ("Microch
      +                          ip").
    41                           ; 
    42                           ; Redistribution and use in source and binary forms, with or without modification, are
    43                           ; permitted provided that the following conditions are met:
    44                           ; 
    45                           ;     1. Redistributions of source code must retain the above copyright notice, this lis
      +                          t of
    46                           ;        conditions and the following disclaimer.
    47                           ; 
    48                           ;     2. Redistributions in binary form must reproduce the above copyright notice, this 
      +                          list
    49                           ;        of conditions and the following disclaimer in the documentation and/or other
    50                           ;        materials provided with the distribution. Publication is not required when
    51                           ;        this file is used in an embedded application.
    52                           ; 
    53                           ;     3. Microchip's name may not be used to endorse or promote products derived from th
      +                          is
    54                           ;        software without specific prior written permission.
    55                           ; 
    56                           ; THIS SOFTWARE IS PROVIDED BY MICROCHIP "AS IS" AND ANY EXPRESS OR IMPLIED WARRANTIES,
    57                           ; INCLUDING, BUT NOT LIMITED TO, THE IMPLIED WARRANTIES OF MERCHANTABILITY AND FITNESS F
      +                          OR
    58                           ; PURPOSE ARE DISCLAIMED.  IN NO EVENT SHALL MICROCHIP BE LIABLE FOR ANY DIRECT, INDIREC
      +                          T,
    59                           ; INCIDENTAL, SPECIAL, EXEMPLARY, OR CONSEQUENTIAL DAMAGES (INCLUDING BUT NOT LIMITED TO
    60                           ; PROCUREMENT OF SUBSTITUTE GOODS OR SERVICES; LOSS OF USE, DATA OR PROFITS; OR BUSINESS
    61                           ; INTERRUPTION) HOWSOEVER CAUSED AND ON ANY THEORY OF LIABILITY, WHETHER IN CONTRACT, ST
      +                          RICT
    62                           ; LIABILITY, OR TORT (INCLUDING NEGLIGENCE OR OTHERWISE) ARISING IN ANY WAY OUT OF THE U
      +                          SE OF
    63                           ; THIS SOFTWARE, EVEN IF ADVISED OF THE POSSIBILITY OF SUCH DAMAGE.
    64                           ; 
    65                           ; 
    66                           ; Code-generator required, PIC16F73 Definitions
    67                           ; 
    68                           ; SFR Addresses
    69     0000                     	;# 
    70     0001                     	;# 
    71     0002                     	;# 
    72     0003                     	;# 
    73     0004                     	;# 
    74     0005                     	;# 
    75     0006                     	;# 
    76     0007                     	;# 
    77     000A                     	;# 
    78     000B                     	;# 
    79     000C                     	;# 
    80     000D                     	;# 
    81     000E                     	;# 
    82     000E                     	;# 
    83     000F                     	;# 
    84     0010                     	;# 
    85     0011                     	;# 
    86     0012                     	;# 
    87     0013                     	;# 
    88     0014                     	;# 
    89     0015                     	;# 
    90     0015                     	;# 
    91     0016                     	;# 
    92     0017                     	;# 
    93     0018                     	;# 
    94     0019                     	;# 
    95     001A                     	;# 
    96     001B                     	;# 
    97     001B                     	;# 
    98     001C                     	;# 
    99     001D                     	;# 
   100     001E                     	;# 
   101     001F                     	;# 
   102     0081                     	;# 
   103     0085                     	;# 
   104     0086                     	;# 
   105     0087                     	;# 
   106     008C                     	;# 
   107     008D                     	;# 
   108     008E                     	;# 
   109     0092                     	;# 
   110     0093                     	;# 
   111     0094                     	;# 
   112     0098                     	;# 
   113     0099                     	;# 
   114     009F                     	;# 
   115     010C                     	;# 
   116     010D                     	;# 
   117     010E                     	;# 
   118     010F                     	;# 
   119     018C                     	;# 
   120                           
   121                           	psect	idataBANK0
   122     0558                     __pidataBANK0:
   123                           
   124                           ;initializer for _flagCien
   125     0558  3430               	retlw	48
   126                           
   127                           ;initializer for _sMilnew
   128     0559  3430               	retlw	48
   129                           
   130                           ;initializer for _sMilold
   131     055A  3430               	retlw	48
   132                           
   133                           ;initializer for _sMillosnew
   134     055B  3430               	retlw	48
   135                           
   136                           ;initializer for _sMillosold
   137     055C  3430               	retlw	48
   138                           
   139                           ;initializer for _cMillon
   140     055D  3430               	retlw	48
   141                           
   142                           ;initializer for _dMil
   143     055E  3430               	retlw	48
   144     0007                     _PORTCbits	set	7
   145     000B                     _INTCONbits	set	11
   146     0001                     _TMR0	set	1
   147     0029                     _RA1	set	41
   148     0039                     _RC1	set	57
   149     002A                     _RA2	set	42
   150     003A                     _RC2	set	58
   151     0028                     _RA0	set	40
   152     0038                     _RC0	set	56
   153     0085                     _TRISA	set	133
   154     0087                     _TRISC	set	135
   155     0086                     _TRISB	set	134
   156     0081                     _OPTION_REGbits	set	129
   157                           
   158                           	psect	cinit
   159     000F                     start_initialization:	
   160                           ; #config settings
   161                           
   162     000F                     __initialization:
   163                           
   164                           ; Initialize objects allocated to BANK0
   165     000F  118A  2558  118A   	fcall	__pidataBANK0	;fetch initializer
   166     0012  00D3               	movwf	__pdataBANK0& (0+127)
   167     0013  118A  2559  118A   	fcall	__pidataBANK0+1	;fetch initializer
   168     0016  00D4               	movwf	(__pdataBANK0+1)& (0+127)
   169     0017  118A  255A  118A   	fcall	__pidataBANK0+2	;fetch initializer
   170     001A  00D5               	movwf	(__pdataBANK0+2)& (0+127)
   171     001B  118A  255B  118A   	fcall	__pidataBANK0+3	;fetch initializer
   172     001E  00D6               	movwf	(__pdataBANK0+3)& (0+127)
   173     001F  118A  255C  118A   	fcall	__pidataBANK0+4	;fetch initializer
   174     0022  00D7               	movwf	(__pdataBANK0+4)& (0+127)
   175     0023  118A  255D  118A   	fcall	__pidataBANK0+5	;fetch initializer
   176     0026  00D8               	movwf	(__pdataBANK0+5)& (0+127)
   177     0027  118A  255E  118A   	fcall	__pidataBANK0+6	;fetch initializer
   178     002A  00D9               	movwf	(__pdataBANK0+6)& (0+127)
   179                           
   180                           ; Clear objects allocated to BANK0
   181     002B  1383               	bcf	3,7	;select IRP bank0
   182     002C  3020               	movlw	low __pbssBANK0
   183     002D  0084               	movwf	4
   184     002E  3044               	movlw	low (__pbssBANK0+36)
   185     002F  118A  2550  118A   	fcall	clear_ram0
   186     0032                     end_of_initialization:	
   187                           ;End of C runtime variable initialization code
   188                           
   189     0032                     __end_of__initialization:
   190     0032  0183               	clrf	3
   191     0033  118A  2835         	ljmp	_main	;jump to C main() function
   192                           
   193                           	psect	bssBANK0
   194     0020                     __pbssBANK0:
   195     0020                     _bufferin:
   196     0020                     	ds	30
   197     003E                     _i:
   198     003E                     	ds	1
   199     003F                     _BCC:
   200     003F                     	ds	1
   201     0040                     _zerosleft:
   202     0040                     	ds	1
   203     0041                     _nSTX:
   204     0041                     	ds	1
   205     0042                     _nbyte:
   206     0042                     	ds	1
   207     0043                     _byteValue:
   208     0043                     	ds	1
   209                           
   210                           	psect	dataBANK0
   211     0053                     __pdataBANK0:
   212     0053                     _flagCien:
   213     0053                     	ds	1
   214     0054                     _sMilnew:
   215     0054                     	ds	1
   216     0055                     _sMilold:
   217     0055                     	ds	1
   218     0056                     _sMillosnew:
   219     0056                     	ds	1
   220     0057                     _sMillosold:
   221     0057                     	ds	1
   222     0058                     _cMillon:
   223     0058                     	ds	1
   224     0059                     _dMil:
   225     0059                     	ds	1
   226                           
   227                           	psect	clrtext
   228     0550                     clear_ram0:	
   229                           ;	Called with FSR containing the base address, and
   230                           ;	W with the last address+1
   231                           
   232     0550  0064               	clrwdt	;clear the watchdog before getting into this loop
   233     0551                     clrloop0:
   234     0551  0180               	clrf	0	;clear RAM location pointed to by FSR
   235     0552  0A84               	incf	4,f	;increment pointer
   236     0553  0604               	xorwf	4,w	;XOR with final address
   237     0554  1903               	btfsc	3,2	;have we reached the end yet?
   238     0555  3400               	retlw	0	;all done for this memory range, return
   239     0556  0604               	xorwf	4,w	;XOR again to restore value
   240     0557  2D51               	goto	clrloop0	;do the next byte
   241                           
   242                           	psect	cstackCOMMON
   243     0000                     __pcstackCOMMON:
   244     0000                     ??_MAX_DIN_setHigh:
   245     0000                     ??_MAX_DIN2_setHigh:	
   246                           ; 1 bytes @ 0x0
   247                           
   248     0000                     ??_MAX_DIN_setLow:	
   249                           ; 1 bytes @ 0x0
   250                           
   251     0000                     ??_MAX_DIN2_setLow:	
   252                           ; 1 bytes @ 0x0
   253                           
   254     0000                     ??_MAX_CLK_setHigh:	
   255                           ; 1 bytes @ 0x0
   256                           
   257     0000                     ??_MAX_CLK2_setHigh:	
   258                           ; 1 bytes @ 0x0
   259                           
   260     0000                     ??_MAX_CLK_setLow:	
   261                           ; 1 bytes @ 0x0
   262                           
   263     0000                     ??_MAX_CLK2_setLow:	
   264                           ; 1 bytes @ 0x0
   265                           
   266     0000                     ??_MAX_LAT_setLow:	
   267                           ; 1 bytes @ 0x0
   268                           
   269     0000                     ??_MAX_LAT2_setLow:	
   270                           ; 1 bytes @ 0x0
   271                           
   272     0000                     ??_MAX_LAT_setHigh:	
   273                           ; 1 bytes @ 0x0
   274                           
   275     0000                     ??_MAX_LAT2_setHigh:	
   276                           ; 1 bytes @ 0x0
   277                           
   278     0000                     ??_initMAXs:	
   279                           ; 1 bytes @ 0x0
   280                           
   281     0000                     ??_setup_timer:	
   282                           ; 1 bytes @ 0x0
   283                           
   284                           
   285                           	psect	cstackBANK0
   286     0044                     __pcstackBANK0:	
   287                           ; 1 bytes @ 0x0
   288                           
   289     0044                     ?_MAX_DIN_setHigh:
   290     0044                     ?_MAX_DIN2_setHigh:	
   291                           ; 1 bytes @ 0x0
   292                           
   293     0044                     ?_MAX_DIN_setLow:	
   294                           ; 1 bytes @ 0x0
   295                           
   296     0044                     ?_MAX_DIN2_setLow:	
   297                           ; 1 bytes @ 0x0
   298                           
   299     0044                     ?_MAX_CLK_setHigh:	
   300                           ; 1 bytes @ 0x0
   301                           
   302     0044                     ?_MAX_CLK2_setHigh:	
   303                           ; 1 bytes @ 0x0
   304                           
   305     0044                     ?_MAX_CLK_setLow:	
   306                           ; 1 bytes @ 0x0
   307                           
   308     0044                     ?_MAX_CLK2_setLow:	
   309                           ; 1 bytes @ 0x0
   310                           
   311     0044                     ?_MAX_LAT_setLow:	
   312                           ; 1 bytes @ 0x0
   313                           
   314     0044                     ?_MAX_LAT2_setLow:	
   315                           ; 1 bytes @ 0x0
   316                           
   317     0044                     ?_MAX_LAT_setHigh:	
   318                           ; 1 bytes @ 0x0
   319                           
   320     0044                     ?_MAX_LAT2_setHigh:	
   321                           ; 1 bytes @ 0x0
   322                           
   323     0044                     ?_initMAXs:	
   324                           ; 1 bytes @ 0x0
   325                           
   326     0044                     ?_setup_timer:	
   327                           ; 1 bytes @ 0x0
   328                           
   329     0044                     ?_send_byte:	
   330                           ; 1 bytes @ 0x0
   331                           
   332     0044                     ?_receive_byte:	
   333                           ; 1 bytes @ 0x0
   334                           
   335     0044                     ?_isr:	
   336                           ; 1 bytes @ 0x0
   337                           
   338     0044                     ??_isr:	
   339                           ; 1 bytes @ 0x0
   340                           
   341     0044                     ?_main:	
   342                           ; 1 bytes @ 0x0
   343                           
   344                           
   345                           ; 1 bytes @ 0x0
   346     0044                     	ds	2
   347     0046                     ?_MAX7219_send:
   348     0046                     ?_COMAX7219_send:	
   349                           ; 1 bytes @ 0x2
   350                           
   351     0046                     ??_send_byte:	
   352                           ; 1 bytes @ 0x2
   353                           
   354     0046                     ??_receive_byte:	
   355                           ; 1 bytes @ 0x2
   356                           
   357     0046                     MAX7219_send@dat:	
   358                           ; 1 bytes @ 0x2
   359                           
   360     0046                     COMAX7219_send@dat:	
   361                           ; 1 bytes @ 0x2
   362                           
   363                           
   364                           ; 1 bytes @ 0x2
   365     0046                     	ds	1
   366     0047                     ??_MAX7219_send:
   367     0047                     ??_COMAX7219_send:	
   368                           ; 1 bytes @ 0x3
   369                           
   370     0047                     send_byte@parity:	
   371                           ; 1 bytes @ 0x3
   372                           
   373     0047                     receive_byte@data:	
   374                           ; 1 bytes @ 0x3
   375                           
   376                           
   377                           ; 1 bytes @ 0x3
   378     0047                     	ds	1
   379     0048                     send_byte@data:
   380     0048                     receive_byte@parity:	
   381                           ; 1 bytes @ 0x4
   382                           
   383                           
   384                           ; 1 bytes @ 0x4
   385     0048                     	ds	1
   386     0049                     send_byte@i:
   387     0049                     receive_byte@i:	
   388                           ; 1 bytes @ 0x5
   389                           
   390                           
   391                           ; 1 bytes @ 0x5
   392     0049                     	ds	2
   393     004B                     MAX7219_send@d:
   394     004B                     COMAX7219_send@d:	
   395                           ; 2 bytes @ 0x7
   396                           
   397                           
   398                           ; 2 bytes @ 0x7
   399     004B                     	ds	2
   400     004D                     MAX7219_send@reg:
   401     004D                     COMAX7219_send@reg:	
   402                           ; 1 bytes @ 0x9
   403                           
   404                           
   405                           ; 1 bytes @ 0x9
   406     004D                     	ds	1
   407     004E                     MAX7219_send@i:
   408     004E                     COMAX7219_send@i:	
   409                           ; 1 bytes @ 0xA
   410                           
   411                           
   412                           ; 1 bytes @ 0xA
   413     004E                     	ds	1
   414     004F                     ??_main:
   415                           
   416                           ; 1 bytes @ 0xB
   417     004F                     	ds	4
   418                           
   419                           	psect	maintext
   420     0035                     __pmaintext:	
   421 ;;
   422 ;;Main: autosize = 0, tempsize = 4, incstack = 0, save=0
   423 ;;
   424 ;; *************** function _main *****************
   425 ;; Defined at:
   426 ;;		line 271 in file "newmain14.c"
   427 ;; Parameters:    Size  Location     Type
   428 ;;		None
   429 ;; Auto vars:     Size  Location     Type
   430 ;;		None
   431 ;; Return value:  Size  Location     Type
   432 ;;                  1    wreg      void 
   433 ;; Registers used:
   434 ;;		wreg, fsr0l, fsr0h, status,2, status,0, btemp+1, pclath, cstack
   435 ;; Tracked objects:
   436 ;;		On entry : B00/0
   437 ;;		On exit  : 0/0
   438 ;;		Unchanged: 0/0
   439 ;; Data sizes:     COMMON   BANK0   BANK1
   440 ;;      Params:         0       0       0
   441 ;;      Locals:         0       0       0
   442 ;;      Temps:          0       4       0
   443 ;;      Totals:         0       4       0
   444 ;;Total ram usage:        4 bytes
   445 ;; Hardware stack levels required when called: 4
   446 ;; This function calls:
   447 ;;		_COMAX7219_send
   448 ;;		_MAX7219_send
   449 ;;		_initMAXs
   450 ;;		_receive_byte
   451 ;;		_send_byte
   452 ;;		_setup_timer
   453 ;; This function is called by:
   454 ;;		Startup code after reset
   455 ;; This function uses a non-reentrant model
   456 ;;
   457                           
   458     0035                     _main:	
   459                           ;psect for function _main
   460                           
   461     0035                     l1290:	
   462                           ;incstack = 0
   463                           ; Regs used in _main: [wreg-fsr0h+status,2+status,0+btemp+1+pclath+cstack]
   464                           
   465                           
   466                           ;newmain14.c: 272:      TRISB = 0xC0;
   467     0035  30C0               	movlw	192
   468     0036  1683               	bsf	3,5	;RP0=1, select bank1
   469     0037  1303               	bcf	3,6	;RP1=0, select bank1
   470     0038  0086               	movwf	6	;volatile
   471                           
   472                           ;newmain14.c: 273:      TRISC = 0X80;
   473     0039  3080               	movlw	128
   474     003A  0087               	movwf	7	;volatile
   475                           
   476                           ;newmain14.c: 274:      TRISA = 0XF8;
   477     003B  30F8               	movlw	248
   478     003C  0085               	movwf	5	;volatile
   479     003D                     l1292:
   480                           
   481                           ;newmain14.c: 275:     PORTCbits.RC6 = 0;
   482     003D  1283               	bcf	3,5	;RP0=0, select bank0
   483     003E  1303               	bcf	3,6	;RP1=0, select bank0
   484     003F  1307               	bcf	7,6	;volatile
   485     0040                     l1294:
   486                           
   487                           ;newmain14.c: 276:     setup_timer();
   488     0040  118A  2534  118A   	fcall	_setup_timer
   489     0043                     l1296:
   490                           
   491                           ;newmain14.c: 277:     initMAXs();
   492     0043  118A  24F3  118A   	fcall	_initMAXs
   493     0046                     l1298:
   494                           
   495                           ;newmain14.c: 279:     bufferin[0]= 0x02;
   496     0046  3002               	movlw	2
   497     0047  1283               	bcf	3,5	;RP0=0, select bank0
   498     0048  1303               	bcf	3,6	;RP1=0, select bank0
   499     0049  00A0               	movwf	_bufferin
   500     004A                     l1300:
   501                           
   502                           ;newmain14.c: 280:     bufferin[1]= 0x34;
   503     004A  3034               	movlw	52
   504     004B  00A1               	movwf	_bufferin+1
   505     004C                     l1302:
   506                           
   507                           ;newmain14.c: 281:     bufferin[2]= 0x36;
   508     004C  3036               	movlw	54
   509     004D  00A2               	movwf	_bufferin+2
   510     004E                     l1304:
   511                           
   512                           ;newmain14.c: 282:     bufferin[3]= 0x31;
   513     004E  3031               	movlw	49
   514     004F  00A3               	movwf	_bufferin+3
   515     0050                     l1306:
   516                           
   517                           ;newmain14.c: 283:     bufferin[4]= 0x31;
   518     0050  3031               	movlw	49
   519     0051  00A4               	movwf	_bufferin+4
   520     0052                     l1308:
   521                           
   522                           ;newmain14.c: 284:     bufferin[5]= 0x30;
   523     0052  3030               	movlw	48
   524     0053  00A5               	movwf	_bufferin+5
   525     0054                     l1310:
   526                           
   527                           ;newmain14.c: 285:     bufferin[6]= 0x30;
   528     0054  3030               	movlw	48
   529     0055  00A6               	movwf	_bufferin+6
   530     0056                     l1312:
   531                           
   532                           ;newmain14.c: 286:     bufferin[7]= 0x30;
   533     0056  3030               	movlw	48
   534     0057  00A7               	movwf	_bufferin+7
   535     0058                     l1314:
   536                           
   537                           ;newmain14.c: 287:     bufferin[8]= 0x30;
   538     0058  3030               	movlw	48
   539     0059  00A8               	movwf	_bufferin+8
   540     005A                     l1316:
   541                           
   542                           ;newmain14.c: 288:     bufferin[9]= 0x30;
   543     005A  3030               	movlw	48
   544     005B  00A9               	movwf	_bufferin+9
   545     005C                     l1318:
   546                           
   547                           ;newmain14.c: 289:     bufferin[10]= 0x30;
   548     005C  3030               	movlw	48
   549     005D  00AA               	movwf	_bufferin+10
   550     005E                     l1320:
   551                           
   552                           ;newmain14.c: 290:     bufferin[11]= 0x30;
   553     005E  3030               	movlw	48
   554     005F  00AB               	movwf	_bufferin+11
   555     0060                     l1322:
   556                           
   557                           ;newmain14.c: 291:     bufferin[12]= 0x30;
   558     0060  3030               	movlw	48
   559     0061  00AC               	movwf	_bufferin+12
   560     0062                     l1324:
   561                           
   562                           ;newmain14.c: 292:     bufferin[13]= 0x30;
   563     0062  3030               	movlw	48
   564     0063  00AD               	movwf	_bufferin+13
   565     0064                     l1326:
   566                           
   567                           ;newmain14.c: 293:     bufferin[14]= 0x30;
   568     0064  3030               	movlw	48
   569     0065  00AE               	movwf	_bufferin+14
   570     0066                     l1328:
   571                           
   572                           ;newmain14.c: 294:     bufferin[15]= 0x30;
   573     0066  3030               	movlw	48
   574     0067  00AF               	movwf	_bufferin+15
   575     0068                     l1330:
   576                           
   577                           ;newmain14.c: 295:     bufferin[16]= 0x31;
   578     0068  3031               	movlw	49
   579     0069  00B0               	movwf	_bufferin+16
   580     006A                     l1332:
   581                           
   582                           ;newmain14.c: 296:     bufferin[17]= 0x30;
   583     006A  3030               	movlw	48
   584     006B  00B1               	movwf	_bufferin+17
   585     006C                     l1334:
   586                           
   587                           ;newmain14.c: 297:     bufferin[18]= 0x30;
   588     006C  3030               	movlw	48
   589     006D  00B2               	movwf	_bufferin+18
   590     006E                     l1336:
   591                           
   592                           ;newmain14.c: 298:     bufferin[19]= 0x30;
   593     006E  3030               	movlw	48
   594     006F  00B3               	movwf	_bufferin+19
   595     0070                     l1338:
   596                           
   597                           ;newmain14.c: 299:     bufferin[20]= 0x30;
   598     0070  3030               	movlw	48
   599     0071  00B4               	movwf	_bufferin+20
   600     0072                     l1340:
   601                           
   602                           ;newmain14.c: 300:     bufferin[21]= 0x30;
   603     0072  3030               	movlw	48
   604     0073  00B5               	movwf	_bufferin+21
   605     0074                     l1342:
   606                           
   607                           ;newmain14.c: 301:     bufferin[22]= 0x30;
   608     0074  3030               	movlw	48
   609     0075  00B6               	movwf	_bufferin+22
   610     0076                     l1344:
   611                           
   612                           ;newmain14.c: 302:     dMil= 0x30;
   613     0076  3030               	movlw	48
   614     0077  00D9               	movwf	_dMil
   615     0078                     l1346:
   616                           
   617                           ;newmain14.c: 303:     bufferin[23]= 0x30;
   618     0078  3030               	movlw	48
   619     0079  00B7               	movwf	_bufferin+23
   620     007A                     l1348:
   621                           
   622                           ;newmain14.c: 304:     bufferin[24]= 0x30;
   623     007A  3030               	movlw	48
   624     007B  00B8               	movwf	_bufferin+24
   625     007C                     l1350:
   626                           
   627                           ;newmain14.c: 305:     bufferin[25]= 0x30;
   628     007C  3030               	movlw	48
   629     007D  00B9               	movwf	_bufferin+25
   630     007E                     l1352:
   631                           
   632                           ;newmain14.c: 306:     bufferin[26]= 0x30;
   633     007E  3030               	movlw	48
   634     007F  00BA               	movwf	_bufferin+26
   635     0080                     l1354:
   636                           
   637                           ;newmain14.c: 307:     bufferin[27]= 0x31;
   638     0080  3031               	movlw	49
   639     0081  00BB               	movwf	_bufferin+27
   640     0082                     l1356:
   641                           
   642                           ;newmain14.c: 308:     bufferin[28]= 0x03;
   643     0082  3003               	movlw	3
   644     0083  00BC               	movwf	_bufferin+28
   645     0084                     l1358:
   646                           
   647                           ;newmain14.c: 309:     bufferin[29]= 0x31;
   648     0084  3031               	movlw	49
   649     0085  00BD               	movwf	_bufferin+29
   650     0086                     l1360:
   651                           
   652                           ;newmain14.c: 314:         if(!zerosleft)
   653     0086  0840               	movf	_zerosleft,w
   654     0087  1D03               	btfss	3,2
   655     0088  288A               	goto	u881
   656     0089  288B               	goto	u880
   657     008A                     u881:
   658     008A  2896               	goto	l1366
   659     008B                     u880:
   660     008B                     l1362:
   661                           
   662                           ;newmain14.c: 315:         {;newmain14.c: 316:             if(bufferin[12]==0x30){buffer
      +                          in[12]= 0x0F + 0x30;}else{zerosleft=1;}
   663     008B  3030               	movlw	48
   664     008C  062C               	xorwf	_bufferin+12,w
   665     008D  1D03               	btfss	3,2
   666     008E  2890               	goto	u891
   667     008F  2891               	goto	u890
   668     0090                     u891:
   669     0090  2894               	goto	l140
   670     0091                     u890:
   671     0091                     l1364:
   672     0091  303F               	movlw	63
   673     0092  00AC               	movwf	_bufferin+12
   674     0093  2896               	goto	l1366
   675     0094                     l140:
   676     0094  01C0               	clrf	_zerosleft
   677     0095  0AC0               	incf	_zerosleft,f
   678     0096                     l1366:
   679                           
   680                           ;newmain14.c: 318:         MAX7219_send(0x08, bufferin[12] -48);
   681     0096  082C               	movf	_bufferin+12,w
   682     0097  3ED0               	addlw	208
   683     0098  00C6               	movwf	MAX7219_send@dat
   684     0099  3008               	movlw	8
   685     009A  118A  245D  118A   	fcall	_MAX7219_send
   686     009D                     l1368:
   687                           
   688                           ;newmain14.c: 319:         if(!zerosleft)
   689     009D  1283               	bcf	3,5	;RP0=0, select bank0
   690     009E  1303               	bcf	3,6	;RP1=0, select bank0
   691     009F  0840               	movf	_zerosleft,w
   692     00A0  1D03               	btfss	3,2
   693     00A1  28A3               	goto	u901
   694     00A2  28A4               	goto	u900
   695     00A3                     u901:
   696     00A3  28AF               	goto	l1374
   697     00A4                     u900:
   698     00A4                     l1370:
   699                           
   700                           ;newmain14.c: 320:         {;newmain14.c: 321:             if(bufferin[13]==0x30){buffer
      +                          in[13]= 0x0F + 0x30;}else{zerosleft=1;}
   701     00A4  3030               	movlw	48
   702     00A5  062D               	xorwf	_bufferin+13,w
   703     00A6  1D03               	btfss	3,2
   704     00A7  28A9               	goto	u911
   705     00A8  28AA               	goto	u910
   706     00A9                     u911:
   707     00A9  28AD               	goto	l143
   708     00AA                     u910:
   709     00AA                     l1372:
   710     00AA  303F               	movlw	63
   711     00AB  00AD               	movwf	_bufferin+13
   712     00AC  28AF               	goto	l1374
   713     00AD                     l143:
   714     00AD  01C0               	clrf	_zerosleft
   715     00AE  0AC0               	incf	_zerosleft,f
   716     00AF                     l1374:
   717                           
   718                           ;newmain14.c: 323:         MAX7219_send(0x07, bufferin[13] -48);
   719     00AF  082D               	movf	_bufferin+13,w
   720     00B0  3ED0               	addlw	208
   721     00B1  00C6               	movwf	MAX7219_send@dat
   722     00B2  3007               	movlw	7
   723     00B3  118A  245D  118A   	fcall	_MAX7219_send
   724     00B6                     l1376:
   725                           
   726                           ;newmain14.c: 324:         if(!zerosleft)
   727     00B6  1283               	bcf	3,5	;RP0=0, select bank0
   728     00B7  1303               	bcf	3,6	;RP1=0, select bank0
   729     00B8  0840               	movf	_zerosleft,w
   730     00B9  1D03               	btfss	3,2
   731     00BA  28BC               	goto	u921
   732     00BB  28BD               	goto	u920
   733     00BC                     u921:
   734     00BC  28C8               	goto	l1382
   735     00BD                     u920:
   736     00BD                     l1378:
   737                           
   738                           ;newmain14.c: 325:         {;newmain14.c: 326:             if(bufferin[14]==0x30){buffer
      +                          in[14]= 0x0F + 0x30;}else{zerosleft=1;}
   739     00BD  3030               	movlw	48
   740     00BE  062E               	xorwf	_bufferin+14,w
   741     00BF  1D03               	btfss	3,2
   742     00C0  28C2               	goto	u931
   743     00C1  28C3               	goto	u930
   744     00C2                     u931:
   745     00C2  28C6               	goto	l146
   746     00C3                     u930:
   747     00C3                     l1380:
   748     00C3  303F               	movlw	63
   749     00C4  00AE               	movwf	_bufferin+14
   750     00C5  28C8               	goto	l1382
   751     00C6                     l146:
   752     00C6  01C0               	clrf	_zerosleft
   753     00C7  0AC0               	incf	_zerosleft,f
   754     00C8                     l1382:
   755                           
   756                           ;newmain14.c: 328:         MAX7219_send(0x06, bufferin[14] -48);
   757     00C8  082E               	movf	_bufferin+14,w
   758     00C9  3ED0               	addlw	208
   759     00CA  00C6               	movwf	MAX7219_send@dat
   760     00CB  3006               	movlw	6
   761     00CC  118A  245D  118A   	fcall	_MAX7219_send
   762     00CF                     l1384:
   763                           
   764                           ;newmain14.c: 329:         if(!zerosleft)
   765     00CF  1283               	bcf	3,5	;RP0=0, select bank0
   766     00D0  1303               	bcf	3,6	;RP1=0, select bank0
   767     00D1  0840               	movf	_zerosleft,w
   768     00D2  1D03               	btfss	3,2
   769     00D3  28D5               	goto	u941
   770     00D4  28D6               	goto	u940
   771     00D5                     u941:
   772     00D5  28E1               	goto	l1390
   773     00D6                     u940:
   774     00D6                     l1386:
   775                           
   776                           ;newmain14.c: 330:         {;newmain14.c: 331:             if(bufferin[15]==0x30){buffer
      +                          in[15]= 0x0F + 0x30;}else{zerosleft=1;}
   777     00D6  3030               	movlw	48
   778     00D7  062F               	xorwf	_bufferin+15,w
   779     00D8  1D03               	btfss	3,2
   780     00D9  28DB               	goto	u951
   781     00DA  28DC               	goto	u950
   782     00DB                     u951:
   783     00DB  28DF               	goto	l149
   784     00DC                     u950:
   785     00DC                     l1388:
   786     00DC  303F               	movlw	63
   787     00DD  00AF               	movwf	_bufferin+15
   788     00DE  28E1               	goto	l1390
   789     00DF                     l149:
   790     00DF  01C0               	clrf	_zerosleft
   791     00E0  0AC0               	incf	_zerosleft,f
   792     00E1                     l1390:
   793                           
   794                           ;newmain14.c: 333:         MAX7219_send(0x05, bufferin[15] -48);
   795     00E1  082F               	movf	_bufferin+15,w
   796     00E2  3ED0               	addlw	208
   797     00E3  00C6               	movwf	MAX7219_send@dat
   798     00E4  3005               	movlw	5
   799     00E5  118A  245D  118A   	fcall	_MAX7219_send
   800     00E8                     l1392:
   801                           
   802                           ;newmain14.c: 334:         if(!zerosleft)
   803     00E8  1283               	bcf	3,5	;RP0=0, select bank0
   804     00E9  1303               	bcf	3,6	;RP1=0, select bank0
   805     00EA  0840               	movf	_zerosleft,w
   806     00EB  1D03               	btfss	3,2
   807     00EC  28EE               	goto	u961
   808     00ED  28EF               	goto	u960
   809     00EE                     u961:
   810     00EE  28FA               	goto	l1398
   811     00EF                     u960:
   812     00EF                     l1394:
   813                           
   814                           ;newmain14.c: 335:         {;newmain14.c: 336:             if(bufferin[16]==0x30){buffer
      +                          in[16]= 0x0F + 0x30;}else{zerosleft=1;}
   815     00EF  3030               	movlw	48
   816     00F0  0630               	xorwf	_bufferin+16,w
   817     00F1  1D03               	btfss	3,2
   818     00F2  28F4               	goto	u971
   819     00F3  28F5               	goto	u970
   820     00F4                     u971:
   821     00F4  28F8               	goto	l152
   822     00F5                     u970:
   823     00F5                     l1396:
   824     00F5  303F               	movlw	63
   825     00F6  00B0               	movwf	_bufferin+16
   826     00F7  28FA               	goto	l1398
   827     00F8                     l152:
   828     00F8  01C0               	clrf	_zerosleft
   829     00F9  0AC0               	incf	_zerosleft,f
   830     00FA                     l1398:
   831                           
   832                           ;newmain14.c: 338:         MAX7219_send(0x04, bufferin[16] -48);
   833     00FA  0830               	movf	_bufferin+16,w
   834     00FB  3ED0               	addlw	208
   835     00FC  00C6               	movwf	MAX7219_send@dat
   836     00FD  3004               	movlw	4
   837     00FE  118A  245D  118A   	fcall	_MAX7219_send
   838     0101                     l1400:
   839                           
   840                           ;newmain14.c: 339:         if(!zerosleft)
   841     0101  1283               	bcf	3,5	;RP0=0, select bank0
   842     0102  1303               	bcf	3,6	;RP1=0, select bank0
   843     0103  0840               	movf	_zerosleft,w
   844     0104  1D03               	btfss	3,2
   845     0105  2907               	goto	u981
   846     0106  2908               	goto	u980
   847     0107                     u981:
   848     0107  2913               	goto	l1406
   849     0108                     u980:
   850     0108                     l1402:
   851                           
   852                           ;newmain14.c: 340:         {;newmain14.c: 341:             if(bufferin[17]==0x30){buffer
      +                          in[17]= 0x0F + 0x30;}else{zerosleft=1;}
   853     0108  3030               	movlw	48
   854     0109  0631               	xorwf	_bufferin+17,w
   855     010A  1D03               	btfss	3,2
   856     010B  290D               	goto	u991
   857     010C  290E               	goto	u990
   858     010D                     u991:
   859     010D  2911               	goto	l155
   860     010E                     u990:
   861     010E                     l1404:
   862     010E  303F               	movlw	63
   863     010F  00B1               	movwf	_bufferin+17
   864     0110  2913               	goto	l1406
   865     0111                     l155:
   866     0111  01C0               	clrf	_zerosleft
   867     0112  0AC0               	incf	_zerosleft,f
   868     0113                     l1406:
   869                           
   870                           ;newmain14.c: 343:         MAX7219_send(0x03, bufferin[17] -48);
   871     0113  0831               	movf	_bufferin+17,w
   872     0114  3ED0               	addlw	208
   873     0115  00C6               	movwf	MAX7219_send@dat
   874     0116  3003               	movlw	3
   875     0117  118A  245D  118A   	fcall	_MAX7219_send
   876     011A                     l1408:
   877                           
   878                           ;newmain14.c: 344:         if(!zerosleft)
   879     011A  1283               	bcf	3,5	;RP0=0, select bank0
   880     011B  1303               	bcf	3,6	;RP1=0, select bank0
   881     011C  0840               	movf	_zerosleft,w
   882     011D  1D03               	btfss	3,2
   883     011E  2920               	goto	u1001
   884     011F  2921               	goto	u1000
   885     0120                     u1001:
   886     0120  292C               	goto	l1414
   887     0121                     u1000:
   888     0121                     l1410:
   889                           
   890                           ;newmain14.c: 345:         {;newmain14.c: 346:             if(bufferin[18]==0x30){buffer
      +                          in[18]= 0x0F + 0x30;}else{zerosleft=1;}
   891     0121  3030               	movlw	48
   892     0122  0632               	xorwf	_bufferin+18,w
   893     0123  1D03               	btfss	3,2
   894     0124  2926               	goto	u1011
   895     0125  2927               	goto	u1010
   896     0126                     u1011:
   897     0126  292A               	goto	l158
   898     0127                     u1010:
   899     0127                     l1412:
   900     0127  303F               	movlw	63
   901     0128  00B2               	movwf	_bufferin+18
   902     0129  292C               	goto	l1414
   903     012A                     l158:
   904     012A  01C0               	clrf	_zerosleft
   905     012B  0AC0               	incf	_zerosleft,f
   906     012C                     l1414:
   907                           
   908                           ;newmain14.c: 348:         MAX7219_send(0x02, bufferin[18] -48);
   909     012C  0832               	movf	_bufferin+18,w
   910     012D  3ED0               	addlw	208
   911     012E  00C6               	movwf	MAX7219_send@dat
   912     012F  3002               	movlw	2
   913     0130  118A  245D  118A   	fcall	_MAX7219_send
   914     0133                     l1416:
   915                           
   916                           ;newmain14.c: 349:         if(!zerosleft)
   917     0133  1283               	bcf	3,5	;RP0=0, select bank0
   918     0134  1303               	bcf	3,6	;RP1=0, select bank0
   919     0135  0840               	movf	_zerosleft,w
   920     0136  1D03               	btfss	3,2
   921     0137  2939               	goto	u1021
   922     0138  293A               	goto	u1020
   923     0139                     u1021:
   924     0139  2945               	goto	l1422
   925     013A                     u1020:
   926     013A                     l1418:
   927                           
   928                           ;newmain14.c: 350:         {;newmain14.c: 351:             if(bufferin[19]==0x30){buffer
      +                          in[19]= 0x0F + 0x30;}else{zerosleft=1;}
   929     013A  3030               	movlw	48
   930     013B  0633               	xorwf	_bufferin+19,w
   931     013C  1D03               	btfss	3,2
   932     013D  293F               	goto	u1031
   933     013E  2940               	goto	u1030
   934     013F                     u1031:
   935     013F  2943               	goto	l161
   936     0140                     u1030:
   937     0140                     l1420:
   938     0140  303F               	movlw	63
   939     0141  00B3               	movwf	_bufferin+19
   940     0142  2945               	goto	l1422
   941     0143                     l161:
   942     0143  01C0               	clrf	_zerosleft
   943     0144  0AC0               	incf	_zerosleft,f
   944     0145                     l1422:
   945                           
   946                           ;newmain14.c: 353:         MAX7219_send(0x01, bufferin[19] -48);
   947     0145  0833               	movf	_bufferin+19,w
   948     0146  3ED0               	addlw	208
   949     0147  00C6               	movwf	MAX7219_send@dat
   950     0148  3001               	movlw	1
   951     0149  118A  245D  118A   	fcall	_MAX7219_send
   952                           
   953                           ;newmain14.c: 355:         COMAX7219_send(0x08, 0x0F);
   954     014C  300F               	movlw	15
   955     014D  1283               	bcf	3,5	;RP0=0, select bank0
   956     014E  1303               	bcf	3,6	;RP1=0, select bank0
   957     014F  00C6               	movwf	COMAX7219_send@dat
   958     0150  3008               	movlw	8
   959     0151  118A  24A8  118A   	fcall	_COMAX7219_send
   960                           
   961                           ;newmain14.c: 356:         COMAX7219_send(0x07, 0x0F);
   962     0154  300F               	movlw	15
   963     0155  1283               	bcf	3,5	;RP0=0, select bank0
   964     0156  1303               	bcf	3,6	;RP1=0, select bank0
   965     0157  00C6               	movwf	COMAX7219_send@dat
   966     0158  3007               	movlw	7
   967     0159  118A  24A8  118A   	fcall	_COMAX7219_send
   968                           
   969                           ;newmain14.c: 357:         COMAX7219_send(0x06, cMillon -48);
   970     015C  1283               	bcf	3,5	;RP0=0, select bank0
   971     015D  1303               	bcf	3,6	;RP1=0, select bank0
   972     015E  0858               	movf	_cMillon,w
   973     015F  3ED0               	addlw	208
   974     0160  00C6               	movwf	COMAX7219_send@dat
   975     0161  3006               	movlw	6
   976     0162  118A  24A8  118A   	fcall	_COMAX7219_send
   977     0165                     l1424:
   978                           
   979                           ;newmain14.c: 358:         zerosleft=0;
   980     0165  1283               	bcf	3,5	;RP0=0, select bank0
   981     0166  1303               	bcf	3,6	;RP1=0, select bank0
   982     0167  01C0               	clrf	_zerosleft
   983     0168                     l1426:
   984     0168                     l1428:	
   985                           ;newmain14.c: 359:         if(!zerosleft)
   986                           
   987                           
   988                           ;newmain14.c: 360:         {;newmain14.c: 361:             if(dMil==0x30){bufferin[23]= 
      +                          0x3F;}else{zerosleft=1;}
   989     0168  3030               	movlw	48
   990     0169  0659               	xorwf	_dMil,w
   991     016A  1D03               	btfss	3,2
   992     016B  296D               	goto	u1041
   993     016C  296E               	goto	u1040
   994     016D                     u1041:
   995     016D  2971               	goto	l164
   996     016E                     u1040:
   997     016E                     l1430:
   998     016E  303F               	movlw	63
   999     016F  00B7               	movwf	_bufferin+23
  1000     0170  2973               	goto	l1432
  1001     0171                     l164:
  1002     0171  01C0               	clrf	_zerosleft
  1003     0172  0AC0               	incf	_zerosleft,f
  1004     0173                     l1432:
  1005                           
  1006                           ;newmain14.c: 363:         COMAX7219_send(0x01, bufferin[23] -48);
  1007     0173  0837               	movf	_bufferin+23,w
  1008     0174  3ED0               	addlw	208
  1009     0175  00C6               	movwf	COMAX7219_send@dat
  1010     0176  3001               	movlw	1
  1011     0177  118A  24A8  118A   	fcall	_COMAX7219_send
  1012     017A                     l1434:
  1013                           
  1014                           ;newmain14.c: 364:         if(!zerosleft)
  1015     017A  1283               	bcf	3,5	;RP0=0, select bank0
  1016     017B  1303               	bcf	3,6	;RP1=0, select bank0
  1017     017C  0840               	movf	_zerosleft,w
  1018     017D  1D03               	btfss	3,2
  1019     017E  2980               	goto	u1051
  1020     017F  2981               	goto	u1050
  1021     0180                     u1051:
  1022     0180  298C               	goto	l1440
  1023     0181                     u1050:
  1024     0181                     l1436:
  1025                           
  1026                           ;newmain14.c: 365:         {;newmain14.c: 366:             if(bufferin[24]==0x30){buffer
      +                          in[24]= 0x3F;}else{zerosleft=1;}
  1027     0181  3030               	movlw	48
  1028     0182  0638               	xorwf	_bufferin+24,w
  1029     0183  1D03               	btfss	3,2
  1030     0184  2986               	goto	u1061
  1031     0185  2987               	goto	u1060
  1032     0186                     u1061:
  1033     0186  298A               	goto	l167
  1034     0187                     u1060:
  1035     0187                     l1438:
  1036     0187  303F               	movlw	63
  1037     0188  00B8               	movwf	_bufferin+24
  1038     0189  298C               	goto	l1440
  1039     018A                     l167:
  1040     018A  01C0               	clrf	_zerosleft
  1041     018B  0AC0               	incf	_zerosleft,f
  1042     018C                     l1440:
  1043                           
  1044                           ;newmain14.c: 368:         COMAX7219_send(0x02, bufferin[24] -48);
  1045     018C  0838               	movf	_bufferin+24,w
  1046     018D  3ED0               	addlw	208
  1047     018E  00C6               	movwf	COMAX7219_send@dat
  1048     018F  3002               	movlw	2
  1049     0190  118A  24A8  118A   	fcall	_COMAX7219_send
  1050     0193                     l1442:
  1051                           
  1052                           ;newmain14.c: 369:         if(!zerosleft)
  1053     0193  1283               	bcf	3,5	;RP0=0, select bank0
  1054     0194  1303               	bcf	3,6	;RP1=0, select bank0
  1055     0195  0840               	movf	_zerosleft,w
  1056     0196  1D03               	btfss	3,2
  1057     0197  2999               	goto	u1071
  1058     0198  299A               	goto	u1070
  1059     0199                     u1071:
  1060     0199  29A5               	goto	l1448
  1061     019A                     u1070:
  1062     019A                     l1444:
  1063                           
  1064                           ;newmain14.c: 370:         {;newmain14.c: 371:             if(bufferin[25]==0x30){buffer
      +                          in[25]= 0x3F;}else{zerosleft=1;}
  1065     019A  3030               	movlw	48
  1066     019B  0639               	xorwf	_bufferin+25,w
  1067     019C  1D03               	btfss	3,2
  1068     019D  299F               	goto	u1081
  1069     019E  29A0               	goto	u1080
  1070     019F                     u1081:
  1071     019F  29A3               	goto	l170
  1072     01A0                     u1080:
  1073     01A0                     l1446:
  1074     01A0  303F               	movlw	63
  1075     01A1  00B9               	movwf	_bufferin+25
  1076     01A2  29A5               	goto	l1448
  1077     01A3                     l170:
  1078     01A3  01C0               	clrf	_zerosleft
  1079     01A4  0AC0               	incf	_zerosleft,f
  1080     01A5                     l1448:
  1081                           
  1082                           ;newmain14.c: 373:         COMAX7219_send(0x03, bufferin[25] -48);
  1083     01A5  0839               	movf	_bufferin+25,w
  1084     01A6  3ED0               	addlw	208
  1085     01A7  00C6               	movwf	COMAX7219_send@dat
  1086     01A8  3003               	movlw	3
  1087     01A9  118A  24A8  118A   	fcall	_COMAX7219_send
  1088     01AC                     l1450:
  1089                           
  1090                           ;newmain14.c: 374:         if(!zerosleft)
  1091     01AC  1283               	bcf	3,5	;RP0=0, select bank0
  1092     01AD  1303               	bcf	3,6	;RP1=0, select bank0
  1093     01AE  0840               	movf	_zerosleft,w
  1094     01AF  1D03               	btfss	3,2
  1095     01B0  29B2               	goto	u1091
  1096     01B1  29B3               	goto	u1090
  1097     01B2                     u1091:
  1098     01B2  29BE               	goto	l1456
  1099     01B3                     u1090:
  1100     01B3                     l1452:
  1101                           
  1102                           ;newmain14.c: 375:         {;newmain14.c: 376:             if(bufferin[26]==0x30){buffer
      +                          in[26]= 0x3F;}else{zerosleft=1;}
  1103     01B3  3030               	movlw	48
  1104     01B4  063A               	xorwf	_bufferin+26,w
  1105     01B5  1D03               	btfss	3,2
  1106     01B6  29B8               	goto	u1101
  1107     01B7  29B9               	goto	u1100
  1108     01B8                     u1101:
  1109     01B8  29BC               	goto	l173
  1110     01B9                     u1100:
  1111     01B9                     l1454:
  1112     01B9  303F               	movlw	63
  1113     01BA  00BA               	movwf	_bufferin+26
  1114     01BB  29BE               	goto	l1456
  1115     01BC                     l173:
  1116     01BC  01C0               	clrf	_zerosleft
  1117     01BD  0AC0               	incf	_zerosleft,f
  1118     01BE                     l1456:
  1119                           
  1120                           ;newmain14.c: 378:         COMAX7219_send(0x04, bufferin[26] -48);
  1121     01BE  083A               	movf	_bufferin+26,w
  1122     01BF  3ED0               	addlw	208
  1123     01C0  00C6               	movwf	COMAX7219_send@dat
  1124     01C1  3004               	movlw	4
  1125     01C2  118A  24A8  118A   	fcall	_COMAX7219_send
  1126                           
  1127                           ;newmain14.c: 379:         COMAX7219_send(0x05, bufferin[27] -48);
  1128     01C5  1283               	bcf	3,5	;RP0=0, select bank0
  1129     01C6  1303               	bcf	3,6	;RP1=0, select bank0
  1130     01C7  083B               	movf	_bufferin+27,w
  1131     01C8  3ED0               	addlw	208
  1132     01C9  00C6               	movwf	COMAX7219_send@dat
  1133     01CA  3005               	movlw	5
  1134     01CB  118A  24A8  118A   	fcall	_COMAX7219_send
  1135     01CE                     l1458:
  1136                           
  1137                           ;newmain14.c: 381:         if(nbyte==0){
  1138     01CE  1283               	bcf	3,5	;RP0=0, select bank0
  1139     01CF  1303               	bcf	3,6	;RP1=0, select bank0
  1140     01D0  0842               	movf	_nbyte,w
  1141     01D1  1D03               	btfss	3,2
  1142     01D2  29D4               	goto	u1111
  1143     01D3  29D5               	goto	u1110
  1144     01D4                     u1111:
  1145     01D4  29E2               	goto	l1466
  1146     01D5                     u1110:
  1147     01D5  29DC               	goto	l1464
  1148     01D6                     l1462:
  1149                           
  1150                           ;newmain14.c: 383:           byteValue=receive_byte();
  1151     01D6  118A  240A  118A   	fcall	_receive_byte
  1152     01D9  1283               	bcf	3,5	;RP0=0, select bank0
  1153     01DA  1303               	bcf	3,6	;RP1=0, select bank0
  1154     01DB  00C3               	movwf	_byteValue
  1155     01DC                     l1464:
  1156                           
  1157                           ;newmain14.c: 382:         while(byteValue !=0x02){
  1158     01DC  3002               	movlw	2
  1159     01DD  0643               	xorwf	_byteValue,w
  1160     01DE  1D03               	btfss	3,2
  1161     01DF  29E1               	goto	u1121
  1162     01E0  29E2               	goto	u1120
  1163     01E1                     u1121:
  1164     01E1  29D6               	goto	l1462
  1165     01E2                     u1120:
  1166     01E2                     l1466:
  1167                           
  1168                           ;newmain14.c: 393:           byteValue = receive_byte();
  1169     01E2  118A  240A  118A   	fcall	_receive_byte
  1170     01E5  1283               	bcf	3,5	;RP0=0, select bank0
  1171     01E6  1303               	bcf	3,6	;RP1=0, select bank0
  1172     01E7  00C3               	movwf	_byteValue
  1173     01E8                     l1468:
  1174                           
  1175                           ;newmain14.c: 394:           bufferin[1] = byteValue;
  1176     01E8  0843               	movf	_byteValue,w
  1177     01E9  00A1               	movwf	_bufferin+1
  1178     01EA                     l1470:
  1179                           
  1180                           ;newmain14.c: 396:           byteValue = receive_byte();
  1181     01EA  118A  240A  118A   	fcall	_receive_byte
  1182     01ED  1283               	bcf	3,5	;RP0=0, select bank0
  1183     01EE  1303               	bcf	3,6	;RP1=0, select bank0
  1184     01EF  00C3               	movwf	_byteValue
  1185                           
  1186                           ;newmain14.c: 397:           bufferin[2] = byteValue;
  1187     01F0  0843               	movf	_byteValue,w
  1188     01F1  00A2               	movwf	_bufferin+2
  1189     01F2                     l1472:
  1190                           
  1191                           ;newmain14.c: 399:           byteValue = receive_byte();
  1192     01F2  118A  240A  118A   	fcall	_receive_byte
  1193     01F5  1283               	bcf	3,5	;RP0=0, select bank0
  1194     01F6  1303               	bcf	3,6	;RP1=0, select bank0
  1195     01F7  00C3               	movwf	_byteValue
  1196     01F8                     l1474:
  1197                           
  1198                           ;newmain14.c: 400:           bufferin[3] = byteValue;
  1199     01F8  0843               	movf	_byteValue,w
  1200     01F9  00A3               	movwf	_bufferin+3
  1201                           
  1202                           ;newmain14.c: 402:           byteValue = receive_byte();
  1203     01FA  118A  240A  118A   	fcall	_receive_byte
  1204     01FD  1283               	bcf	3,5	;RP0=0, select bank0
  1205     01FE  1303               	bcf	3,6	;RP1=0, select bank0
  1206     01FF  00C3               	movwf	_byteValue
  1207     0200                     l1476:
  1208                           
  1209                           ;newmain14.c: 403:           bufferin[4] = byteValue;
  1210     0200  0843               	movf	_byteValue,w
  1211     0201  00A4               	movwf	_bufferin+4
  1212     0202                     l1478:
  1213                           
  1214                           ;newmain14.c: 405:           byteValue = receive_byte();
  1215     0202  118A  240A  118A   	fcall	_receive_byte
  1216     0205  1283               	bcf	3,5	;RP0=0, select bank0
  1217     0206  1303               	bcf	3,6	;RP1=0, select bank0
  1218     0207  00C3               	movwf	_byteValue
  1219                           
  1220                           ;newmain14.c: 406:           bufferin[5] = byteValue;
  1221     0208  0843               	movf	_byteValue,w
  1222     0209  00A5               	movwf	_bufferin+5
  1223     020A                     l1480:
  1224                           
  1225                           ;newmain14.c: 408:           byteValue = receive_byte();
  1226     020A  118A  240A  118A   	fcall	_receive_byte
  1227     020D  1283               	bcf	3,5	;RP0=0, select bank0
  1228     020E  1303               	bcf	3,6	;RP1=0, select bank0
  1229     020F  00C3               	movwf	_byteValue
  1230     0210                     l1482:
  1231                           
  1232                           ;newmain14.c: 409:           bufferin[6] = byteValue;
  1233     0210  0843               	movf	_byteValue,w
  1234     0211  00A6               	movwf	_bufferin+6
  1235                           
  1236                           ;newmain14.c: 411:           byteValue = receive_byte();
  1237     0212  118A  240A  118A   	fcall	_receive_byte
  1238     0215  1283               	bcf	3,5	;RP0=0, select bank0
  1239     0216  1303               	bcf	3,6	;RP1=0, select bank0
  1240     0217  00C3               	movwf	_byteValue
  1241     0218                     l1484:
  1242                           
  1243                           ;newmain14.c: 412:           bufferin[7] = byteValue;
  1244     0218  0843               	movf	_byteValue,w
  1245     0219  00A7               	movwf	_bufferin+7
  1246     021A                     l1486:
  1247                           
  1248                           ;newmain14.c: 414:           byteValue = receive_byte();
  1249     021A  118A  240A  118A   	fcall	_receive_byte
  1250     021D  1283               	bcf	3,5	;RP0=0, select bank0
  1251     021E  1303               	bcf	3,6	;RP1=0, select bank0
  1252     021F  00C3               	movwf	_byteValue
  1253                           
  1254                           ;newmain14.c: 415:           bufferin[8] = byteValue;
  1255     0220  0843               	movf	_byteValue,w
  1256     0221  00A8               	movwf	_bufferin+8
  1257     0222                     l1488:
  1258                           
  1259                           ;newmain14.c: 417:           byteValue = receive_byte();
  1260     0222  118A  240A  118A   	fcall	_receive_byte
  1261     0225  1283               	bcf	3,5	;RP0=0, select bank0
  1262     0226  1303               	bcf	3,6	;RP1=0, select bank0
  1263     0227  00C3               	movwf	_byteValue
  1264     0228                     l1490:
  1265                           
  1266                           ;newmain14.c: 418:           bufferin[9] = byteValue;
  1267     0228  0843               	movf	_byteValue,w
  1268     0229  00A9               	movwf	_bufferin+9
  1269                           
  1270                           ;newmain14.c: 420:           byteValue = receive_byte();
  1271     022A  118A  240A  118A   	fcall	_receive_byte
  1272     022D  1283               	bcf	3,5	;RP0=0, select bank0
  1273     022E  1303               	bcf	3,6	;RP1=0, select bank0
  1274     022F  00C3               	movwf	_byteValue
  1275     0230                     l1492:
  1276                           
  1277                           ;newmain14.c: 421:           bufferin[10] = byteValue;
  1278     0230  0843               	movf	_byteValue,w
  1279     0231  00AA               	movwf	_bufferin+10
  1280     0232                     l1494:
  1281                           
  1282                           ;newmain14.c: 423:           byteValue = receive_byte();
  1283     0232  118A  240A  118A   	fcall	_receive_byte
  1284     0235  1283               	bcf	3,5	;RP0=0, select bank0
  1285     0236  1303               	bcf	3,6	;RP1=0, select bank0
  1286     0237  00C3               	movwf	_byteValue
  1287                           
  1288                           ;newmain14.c: 424:           bufferin[11] = byteValue;
  1289     0238  0843               	movf	_byteValue,w
  1290     0239  00AB               	movwf	_bufferin+11
  1291     023A                     l1496:
  1292                           
  1293                           ;newmain14.c: 426:           byteValue = receive_byte();
  1294     023A  118A  240A  118A   	fcall	_receive_byte
  1295     023D  1283               	bcf	3,5	;RP0=0, select bank0
  1296     023E  1303               	bcf	3,6	;RP1=0, select bank0
  1297     023F  00C3               	movwf	_byteValue
  1298     0240                     l1498:
  1299                           
  1300                           ;newmain14.c: 427:           bufferin[12] = byteValue;
  1301     0240  0843               	movf	_byteValue,w
  1302     0241  00AC               	movwf	_bufferin+12
  1303                           
  1304                           ;newmain14.c: 429:           byteValue = receive_byte();
  1305     0242  118A  240A  118A   	fcall	_receive_byte
  1306     0245  1283               	bcf	3,5	;RP0=0, select bank0
  1307     0246  1303               	bcf	3,6	;RP1=0, select bank0
  1308     0247  00C3               	movwf	_byteValue
  1309     0248                     l1500:
  1310                           
  1311                           ;newmain14.c: 430:           bufferin[13] = byteValue;
  1312     0248  0843               	movf	_byteValue,w
  1313     0249  00AD               	movwf	_bufferin+13
  1314     024A                     l1502:
  1315                           
  1316                           ;newmain14.c: 431:           sMillosnew = byteValue;
  1317     024A  0843               	movf	_byteValue,w
  1318     024B  00D6               	movwf	_sMillosnew
  1319                           
  1320                           ;newmain14.c: 433:           byteValue = receive_byte();
  1321     024C  118A  240A  118A   	fcall	_receive_byte
  1322     024F  1283               	bcf	3,5	;RP0=0, select bank0
  1323     0250  1303               	bcf	3,6	;RP1=0, select bank0
  1324     0251  00C3               	movwf	_byteValue
  1325     0252                     l1504:
  1326                           
  1327                           ;newmain14.c: 434:           bufferin[14] = byteValue;
  1328     0252  0843               	movf	_byteValue,w
  1329     0253  00AE               	movwf	_bufferin+14
  1330     0254                     l1506:
  1331                           
  1332                           ;newmain14.c: 436:           byteValue = receive_byte();
  1333     0254  118A  240A  118A   	fcall	_receive_byte
  1334     0257  1283               	bcf	3,5	;RP0=0, select bank0
  1335     0258  1303               	bcf	3,6	;RP1=0, select bank0
  1336     0259  00C3               	movwf	_byteValue
  1337                           
  1338                           ;newmain14.c: 437:           bufferin[15] = byteValue;
  1339     025A  0843               	movf	_byteValue,w
  1340     025B  00AF               	movwf	_bufferin+15
  1341     025C                     l1508:
  1342                           
  1343                           ;newmain14.c: 439:           byteValue = receive_byte();
  1344     025C  118A  240A  118A   	fcall	_receive_byte
  1345     025F  1283               	bcf	3,5	;RP0=0, select bank0
  1346     0260  1303               	bcf	3,6	;RP1=0, select bank0
  1347     0261  00C3               	movwf	_byteValue
  1348     0262                     l1510:
  1349                           
  1350                           ;newmain14.c: 440:           bufferin[16] = byteValue;
  1351     0262  0843               	movf	_byteValue,w
  1352     0263  00B0               	movwf	_bufferin+16
  1353                           
  1354                           ;newmain14.c: 442:           byteValue = receive_byte();
  1355     0264  118A  240A  118A   	fcall	_receive_byte
  1356     0267  1283               	bcf	3,5	;RP0=0, select bank0
  1357     0268  1303               	bcf	3,6	;RP1=0, select bank0
  1358     0269  00C3               	movwf	_byteValue
  1359     026A                     l1512:
  1360                           
  1361                           ;newmain14.c: 443:           bufferin[17] = byteValue;
  1362     026A  0843               	movf	_byteValue,w
  1363     026B  00B1               	movwf	_bufferin+17
  1364     026C                     l1514:
  1365                           
  1366                           ;newmain14.c: 445:           byteValue = receive_byte();
  1367     026C  118A  240A  118A   	fcall	_receive_byte
  1368     026F  1283               	bcf	3,5	;RP0=0, select bank0
  1369     0270  1303               	bcf	3,6	;RP1=0, select bank0
  1370     0271  00C3               	movwf	_byteValue
  1371                           
  1372                           ;newmain14.c: 446:           bufferin[18] = byteValue;
  1373     0272  0843               	movf	_byteValue,w
  1374     0273  00B2               	movwf	_bufferin+18
  1375     0274                     l1516:
  1376                           
  1377                           ;newmain14.c: 448:           byteValue = receive_byte();
  1378     0274  118A  240A  118A   	fcall	_receive_byte
  1379     0277  1283               	bcf	3,5	;RP0=0, select bank0
  1380     0278  1303               	bcf	3,6	;RP1=0, select bank0
  1381     0279  00C3               	movwf	_byteValue
  1382     027A                     l1518:
  1383                           
  1384                           ;newmain14.c: 449:           bufferin[19] = byteValue;
  1385     027A  0843               	movf	_byteValue,w
  1386     027B  00B3               	movwf	_bufferin+19
  1387                           
  1388                           ;newmain14.c: 451:           byteValue = receive_byte();
  1389     027C  118A  240A  118A   	fcall	_receive_byte
  1390     027F  1283               	bcf	3,5	;RP0=0, select bank0
  1391     0280  1303               	bcf	3,6	;RP1=0, select bank0
  1392     0281  00C3               	movwf	_byteValue
  1393     0282                     l1520:
  1394                           
  1395                           ;newmain14.c: 452:           bufferin[20] = byteValue;
  1396     0282  0843               	movf	_byteValue,w
  1397     0283  00B4               	movwf	_bufferin+20
  1398     0284                     l1522:
  1399                           
  1400                           ;newmain14.c: 454:           byteValue = receive_byte();
  1401     0284  118A  240A  118A   	fcall	_receive_byte
  1402     0287  1283               	bcf	3,5	;RP0=0, select bank0
  1403     0288  1303               	bcf	3,6	;RP1=0, select bank0
  1404     0289  00C3               	movwf	_byteValue
  1405                           
  1406                           ;newmain14.c: 455:           bufferin[21] = byteValue;
  1407     028A  0843               	movf	_byteValue,w
  1408     028B  00B5               	movwf	_bufferin+21
  1409     028C                     l1524:
  1410                           
  1411                           ;newmain14.c: 457:           byteValue = receive_byte();
  1412     028C  118A  240A  118A   	fcall	_receive_byte
  1413     028F  1283               	bcf	3,5	;RP0=0, select bank0
  1414     0290  1303               	bcf	3,6	;RP1=0, select bank0
  1415     0291  00C3               	movwf	_byteValue
  1416     0292                     l1526:
  1417                           
  1418                           ;newmain14.c: 458:           bufferin[22] = byteValue;
  1419     0292  0843               	movf	_byteValue,w
  1420     0293  00B6               	movwf	_bufferin+22
  1421                           
  1422                           ;newmain14.c: 460:           byteValue = receive_byte();
  1423     0294  118A  240A  118A   	fcall	_receive_byte
  1424     0297  1283               	bcf	3,5	;RP0=0, select bank0
  1425     0298  1303               	bcf	3,6	;RP1=0, select bank0
  1426     0299  00C3               	movwf	_byteValue
  1427     029A                     l1528:
  1428                           
  1429                           ;newmain14.c: 461:           bufferin[23] = byteValue;
  1430     029A  0843               	movf	_byteValue,w
  1431     029B  00B7               	movwf	_bufferin+23
  1432     029C                     l1530:
  1433                           
  1434                           ;newmain14.c: 463:           byteValue = receive_byte();
  1435     029C  118A  240A  118A   	fcall	_receive_byte
  1436     029F  1283               	bcf	3,5	;RP0=0, select bank0
  1437     02A0  1303               	bcf	3,6	;RP1=0, select bank0
  1438     02A1  00C3               	movwf	_byteValue
  1439                           
  1440                           ;newmain14.c: 464:           bufferin[24] = byteValue;
  1441     02A2  0843               	movf	_byteValue,w
  1442     02A3  00B8               	movwf	_bufferin+24
  1443                           
  1444                           ;newmain14.c: 465:           sMilnew = byteValue;
  1445     02A4  0843               	movf	_byteValue,w
  1446     02A5  00D4               	movwf	_sMilnew
  1447     02A6                     l1532:
  1448                           
  1449                           ;newmain14.c: 467:           byteValue = receive_byte();
  1450     02A6  118A  240A  118A   	fcall	_receive_byte
  1451     02A9  1283               	bcf	3,5	;RP0=0, select bank0
  1452     02AA  1303               	bcf	3,6	;RP1=0, select bank0
  1453     02AB  00C3               	movwf	_byteValue
  1454     02AC                     l1534:
  1455                           
  1456                           ;newmain14.c: 468:           bufferin[25] = byteValue;
  1457     02AC  0843               	movf	_byteValue,w
  1458     02AD  00B9               	movwf	_bufferin+25
  1459                           
  1460                           ;newmain14.c: 470:           byteValue = receive_byte();
  1461     02AE  118A  240A  118A   	fcall	_receive_byte
  1462     02B1  1283               	bcf	3,5	;RP0=0, select bank0
  1463     02B2  1303               	bcf	3,6	;RP1=0, select bank0
  1464     02B3  00C3               	movwf	_byteValue
  1465     02B4                     l1536:
  1466                           
  1467                           ;newmain14.c: 471:           bufferin[26] = byteValue;
  1468     02B4  0843               	movf	_byteValue,w
  1469     02B5  00BA               	movwf	_bufferin+26
  1470     02B6                     l1538:
  1471                           
  1472                           ;newmain14.c: 473:           byteValue = receive_byte();
  1473     02B6  118A  240A  118A   	fcall	_receive_byte
  1474     02B9  1283               	bcf	3,5	;RP0=0, select bank0
  1475     02BA  1303               	bcf	3,6	;RP1=0, select bank0
  1476     02BB  00C3               	movwf	_byteValue
  1477                           
  1478                           ;newmain14.c: 474:           bufferin[27] = byteValue;
  1479     02BC  0843               	movf	_byteValue,w
  1480     02BD  00BB               	movwf	_bufferin+27
  1481     02BE                     l1540:
  1482                           
  1483                           ;newmain14.c: 476:           byteValue = receive_byte();
  1484     02BE  118A  240A  118A   	fcall	_receive_byte
  1485     02C1  1283               	bcf	3,5	;RP0=0, select bank0
  1486     02C2  1303               	bcf	3,6	;RP1=0, select bank0
  1487     02C3  00C3               	movwf	_byteValue
  1488     02C4                     l1542:
  1489                           
  1490                           ;newmain14.c: 477:           bufferin[28] = byteValue;
  1491     02C4  0843               	movf	_byteValue,w
  1492     02C5  00BC               	movwf	_bufferin+28
  1493                           
  1494                           ;newmain14.c: 479:           byteValue = receive_byte();
  1495     02C6  118A  240A  118A   	fcall	_receive_byte
  1496     02C9  1283               	bcf	3,5	;RP0=0, select bank0
  1497     02CA  1303               	bcf	3,6	;RP1=0, select bank0
  1498     02CB  00C3               	movwf	_byteValue
  1499     02CC                     l1544:
  1500                           
  1501                           ;newmain14.c: 480:           bufferin[29] = byteValue;
  1502     02CC  0843               	movf	_byteValue,w
  1503     02CD  00BD               	movwf	_bufferin+29
  1504     02CE                     l1546:
  1505                           
  1506                           ;newmain14.c: 482:           nbyte ++;
  1507     02CE  3001               	movlw	1
  1508     02CF  00FF               	movwf	btemp+1
  1509     02D0  087F               	movf	btemp+1,w
  1510     02D1  07C2               	addwf	_nbyte,f
  1511     02D2                     l1548:
  1512                           
  1513                           ;newmain14.c: 484:           if(nbyte == 30){nbyte = 0;}
  1514     02D2  301E               	movlw	30
  1515     02D3  0642               	xorwf	_nbyte,w
  1516     02D4  1D03               	btfss	3,2
  1517     02D5  2AD7               	goto	u1131
  1518     02D6  2AD8               	goto	u1130
  1519     02D7                     u1131:
  1520     02D7  2AD9               	goto	l179
  1521     02D8                     u1130:
  1522     02D8                     l1550:
  1523     02D8  01C2               	clrf	_nbyte
  1524     02D9                     l179:
  1525                           
  1526                           ;newmain14.c: 485:           BCC=0;
  1527     02D9  01BF               	clrf	_BCC
  1528     02DA                     l1552:
  1529                           
  1530                           ;newmain14.c: 486:             for (i=1; i<30 -1; i++)
  1531     02DA  01BE               	clrf	_i
  1532     02DB  0ABE               	incf	_i,f
  1533     02DC                     l1554:
  1534     02DC  301D               	movlw	29
  1535     02DD  023E               	subwf	_i,w
  1536     02DE  1C03               	skipc
  1537     02DF  2AE1               	goto	u1141
  1538     02E0  2AE2               	goto	u1140
  1539     02E1                     u1141:
  1540     02E1  2AE3               	goto	l1558
  1541     02E2                     u1140:
  1542     02E2  2AEF               	goto	l1564
  1543     02E3                     l1558:
  1544                           
  1545                           ;newmain14.c: 487:             {BCC=BCC^bufferin[i];}
  1546     02E3  083E               	movf	_i,w
  1547     02E4  3E20               	addlw	(low (_bufferin| 0))& (0+255)
  1548     02E5  0084               	movwf	4
  1549     02E6  1383               	bcf	3,7	;select IRP bank0
  1550     02E7  0800               	movf	0,w
  1551     02E8  063F               	xorwf	_BCC,w
  1552     02E9  00BF               	movwf	_BCC
  1553     02EA                     l1560:
  1554     02EA  3001               	movlw	1
  1555     02EB  00FF               	movwf	btemp+1
  1556     02EC  087F               	movf	btemp+1,w
  1557     02ED  07BE               	addwf	_i,f
  1558     02EE  2ADC               	goto	l1554
  1559     02EF                     l1564:
  1560                           
  1561                           ;newmain14.c: 488:             if (BCC==bufferin[29]) {
  1562     02EF  083D               	movf	_bufferin+29,w
  1563     02F0  063F               	xorwf	_BCC,w
  1564     02F1  1D03               	skipz
  1565     02F2  2AF4               	goto	u1151
  1566     02F3  2AF5               	goto	u1150
  1567     02F4                     u1151:
  1568     02F4  2AFA               	goto	l1568
  1569     02F5                     u1150:
  1570     02F5                     l1566:
  1571                           
  1572                           ;newmain14.c: 489:              send_byte(0x06);
  1573     02F5  3006               	movlw	6
  1574     02F6  118A  23AA  118A   	fcall	_send_byte
  1575                           
  1576                           ;newmain14.c: 490:             }else{send_byte(0x15);}
  1577     02F9  2AFE               	goto	l1570
  1578     02FA                     l1568:
  1579     02FA  3015               	movlw	21
  1580     02FB  118A  23AA  118A   	fcall	_send_byte
  1581     02FE                     l1570:
  1582                           
  1583                           ;newmain14.c: 492:           if((bufferin[3]==0x31)&& ((sMillosnew-sMillosold)<0)&&(sMil
      +                          losold == 0x39)){
  1584     02FE  3031               	movlw	49
  1585     02FF  1283               	bcf	3,5	;RP0=0, select bank0
  1586     0300  1303               	bcf	3,6	;RP1=0, select bank0
  1587     0301  0623               	xorwf	_bufferin+3,w
  1588     0302  1D03               	btfss	3,2
  1589     0303  2B05               	goto	u1161
  1590     0304  2B06               	goto	u1160
  1591     0305                     u1161:
  1592     0305  2B28               	goto	l1584
  1593     0306                     u1160:
  1594     0306                     l1572:
  1595     0306  0856               	movf	_sMillosnew,w
  1596     0307  00CF               	movwf	??_main
  1597     0308  01D0               	clrf	??_main+1
  1598     0309  0850               	movf	??_main+1,w
  1599     030A  00D2               	movwf	??_main+3
  1600     030B  0857               	movf	_sMillosold,w
  1601     030C  024F               	subwf	??_main,w
  1602     030D  00D1               	movwf	??_main+2
  1603     030E  1C03               	skipc
  1604     030F  03D2               	decf	??_main+3,f
  1605     0310  1FD2               	btfss	??_main+3,7
  1606     0311  2B13               	goto	u1171
  1607     0312  2B14               	goto	u1170
  1608     0313                     u1171:
  1609     0313  2B28               	goto	l1584
  1610     0314                     u1170:
  1611     0314                     l1574:
  1612     0314  3039               	movlw	57
  1613     0315  0657               	xorwf	_sMillosold,w
  1614     0316  1D03               	btfss	3,2
  1615     0317  2B19               	goto	u1181
  1616     0318  2B1A               	goto	u1180
  1617     0319                     u1181:
  1618     0319  2B28               	goto	l1584
  1619     031A                     u1180:
  1620     031A                     l1576:
  1621                           
  1622                           ;newmain14.c: 493:             cMillon++;
  1623     031A  3001               	movlw	1
  1624     031B  00FF               	movwf	btemp+1
  1625     031C  087F               	movf	btemp+1,w
  1626     031D  07D8               	addwf	_cMillon,f
  1627     031E                     l1578:
  1628                           
  1629                           ;newmain14.c: 494:             flagCien = 0x31;
  1630     031E  3031               	movlw	49
  1631     031F  00D3               	movwf	_flagCien
  1632     0320                     l1580:
  1633                           
  1634                           ;newmain14.c: 495:             if(cMillon == 0x3A){cMillon = 0x30;}
  1635     0320  303A               	movlw	58
  1636     0321  0658               	xorwf	_cMillon,w
  1637     0322  1D03               	btfss	3,2
  1638     0323  2B25               	goto	u1191
  1639     0324  2B26               	goto	u1190
  1640     0325                     u1191:
  1641     0325  2B28               	goto	l1584
  1642     0326                     u1190:
  1643     0326                     l1582:
  1644     0326  3030               	movlw	48
  1645     0327  00D8               	movwf	_cMillon
  1646     0328                     l1584:
  1647                           
  1648                           ;newmain14.c: 497:         if((bufferin[3]==0x31)&&((sMilnew-sMilold)<0)&&(sMilold == 0x
      +                          39)){
  1649     0328  3031               	movlw	49
  1650     0329  0623               	xorwf	_bufferin+3,w
  1651     032A  1D03               	btfss	3,2
  1652     032B  2B2D               	goto	u1201
  1653     032C  2B2E               	goto	u1200
  1654     032D                     u1201:
  1655     032D  2B50               	goto	l186
  1656     032E                     u1200:
  1657     032E                     l1586:
  1658     032E  0854               	movf	_sMilnew,w
  1659     032F  00CF               	movwf	??_main
  1660     0330  01D0               	clrf	??_main+1
  1661     0331  0850               	movf	??_main+1,w
  1662     0332  00D2               	movwf	??_main+3
  1663     0333  0855               	movf	_sMilold,w
  1664     0334  024F               	subwf	??_main,w
  1665     0335  00D1               	movwf	??_main+2
  1666     0336  1C03               	skipc
  1667     0337  03D2               	decf	??_main+3,f
  1668     0338  1FD2               	btfss	??_main+3,7
  1669     0339  2B3B               	goto	u1211
  1670     033A  2B3C               	goto	u1210
  1671     033B                     u1211:
  1672     033B  2B50               	goto	l186
  1673     033C                     u1210:
  1674     033C                     l1588:
  1675     033C  3039               	movlw	57
  1676     033D  0655               	xorwf	_sMilold,w
  1677     033E  1D03               	btfss	3,2
  1678     033F  2B41               	goto	u1221
  1679     0340  2B42               	goto	u1220
  1680     0341                     u1221:
  1681     0341  2B50               	goto	l186
  1682     0342                     u1220:
  1683     0342                     l1590:
  1684                           
  1685                           ;newmain14.c: 498:             dMil++;
  1686     0342  3001               	movlw	1
  1687     0343  00FF               	movwf	btemp+1
  1688     0344  087F               	movf	btemp+1,w
  1689     0345  07D9               	addwf	_dMil,f
  1690     0346                     l1592:
  1691                           
  1692                           ;newmain14.c: 499:             flagCien = 0x31;
  1693     0346  3031               	movlw	49
  1694     0347  00D3               	movwf	_flagCien
  1695     0348                     l1594:
  1696                           
  1697                           ;newmain14.c: 500:             if(dMil == 0x3A){dMil = 0x30;}
  1698     0348  303A               	movlw	58
  1699     0349  0659               	xorwf	_dMil,w
  1700     034A  1D03               	btfss	3,2
  1701     034B  2B4D               	goto	u1231
  1702     034C  2B4E               	goto	u1230
  1703     034D                     u1231:
  1704     034D  2B50               	goto	l186
  1705     034E                     u1230:
  1706     034E                     l1596:
  1707     034E  3030               	movlw	48
  1708     034F  00D9               	movwf	_dMil
  1709     0350                     l186:	
  1710                           ;newmain14.c: 501:         }
  1711                           
  1712                           
  1713                           ;newmain14.c: 502:         sMillosold = sMillosnew;
  1714     0350  0856               	movf	_sMillosnew,w
  1715     0351  00D7               	movwf	_sMillosold
  1716                           
  1717                           ;newmain14.c: 503:         sMilold = sMilnew;
  1718     0352  0854               	movf	_sMilnew,w
  1719     0353  00D5               	movwf	_sMilold
  1720     0354                     l1598:
  1721                           
  1722                           ;newmain14.c: 505:         if((flagCien==0x30)&&(bufferin[13]==30)&&(bufferin[14]==30)&&
      +                          (bufferin[15]==30)&&
  1723     0354  3030               	movlw	48
  1724     0355  0653               	xorwf	_flagCien,w
  1725     0356  1D03               	btfss	3,2
  1726     0357  2B59               	goto	u1241
  1727     0358  2B5A               	goto	u1240
  1728     0359                     u1241:
  1729     0359  2BA7               	goto	l1626
  1730     035A                     u1240:
  1731     035A                     l1600:
  1732     035A  301E               	movlw	30
  1733     035B  062D               	xorwf	_bufferin+13,w
  1734     035C  1D03               	btfss	3,2
  1735     035D  2B5F               	goto	u1251
  1736     035E  2B60               	goto	u1250
  1737     035F                     u1251:
  1738     035F  2BA7               	goto	l1626
  1739     0360                     u1250:
  1740     0360                     l1602:
  1741     0360  301E               	movlw	30
  1742     0361  062E               	xorwf	_bufferin+14,w
  1743     0362  1D03               	btfss	3,2
  1744     0363  2B65               	goto	u1261
  1745     0364  2B66               	goto	u1260
  1746     0365                     u1261:
  1747     0365  2BA7               	goto	l1626
  1748     0366                     u1260:
  1749     0366                     l1604:
  1750     0366  301E               	movlw	30
  1751     0367  062F               	xorwf	_bufferin+15,w
  1752     0368  1D03               	btfss	3,2
  1753     0369  2B6B               	goto	u1271
  1754     036A  2B6C               	goto	u1270
  1755     036B                     u1271:
  1756     036B  2BA7               	goto	l1626
  1757     036C                     u1270:
  1758     036C                     l1606:
  1759     036C  301E               	movlw	30
  1760     036D  0630               	xorwf	_bufferin+16,w
  1761     036E  1D03               	btfss	3,2
  1762     036F  2B71               	goto	u1281
  1763     0370  2B72               	goto	u1280
  1764     0371                     u1281:
  1765     0371  2BA7               	goto	l1626
  1766     0372                     u1280:
  1767     0372                     l1608:
  1768     0372  301E               	movlw	30
  1769     0373  0631               	xorwf	_bufferin+17,w
  1770     0374  1D03               	btfss	3,2
  1771     0375  2B77               	goto	u1291
  1772     0376  2B78               	goto	u1290
  1773     0377                     u1291:
  1774     0377  2BA7               	goto	l1626
  1775     0378                     u1290:
  1776     0378                     l1610:
  1777     0378  301E               	movlw	30
  1778     0379  0632               	xorwf	_bufferin+18,w
  1779     037A  1D03               	btfss	3,2
  1780     037B  2B7D               	goto	u1301
  1781     037C  2B7E               	goto	u1300
  1782     037D                     u1301:
  1783     037D  2BA7               	goto	l1626
  1784     037E                     u1300:
  1785     037E                     l1612:
  1786     037E  301E               	movlw	30
  1787     037F  0633               	xorwf	_bufferin+19,w
  1788     0380  1D03               	btfss	3,2
  1789     0381  2B83               	goto	u1311
  1790     0382  2B84               	goto	u1310
  1791     0383                     u1311:
  1792     0383  2BA7               	goto	l1626
  1793     0384                     u1310:
  1794     0384                     l1614:
  1795     0384  301E               	movlw	30
  1796     0385  0634               	xorwf	_bufferin+20,w
  1797     0386  1D03               	btfss	3,2
  1798     0387  2B89               	goto	u1321
  1799     0388  2B8A               	goto	u1320
  1800     0389                     u1321:
  1801     0389  2BA7               	goto	l1626
  1802     038A                     u1320:
  1803     038A                     l1616:
  1804     038A  301E               	movlw	30
  1805     038B  0638               	xorwf	_bufferin+24,w
  1806     038C  1D03               	btfss	3,2
  1807     038D  2B8F               	goto	u1331
  1808     038E  2B90               	goto	u1330
  1809     038F                     u1331:
  1810     038F  2BA7               	goto	l1626
  1811     0390                     u1330:
  1812     0390                     l1618:
  1813     0390  301E               	movlw	30
  1814     0391  0639               	xorwf	_bufferin+25,w
  1815     0392  1D03               	btfss	3,2
  1816     0393  2B95               	goto	u1341
  1817     0394  2B96               	goto	u1340
  1818     0395                     u1341:
  1819     0395  2BA7               	goto	l1626
  1820     0396                     u1340:
  1821     0396                     l1620:
  1822     0396  301E               	movlw	30
  1823     0397  063A               	xorwf	_bufferin+26,w
  1824     0398  1D03               	btfss	3,2
  1825     0399  2B9B               	goto	u1351
  1826     039A  2B9C               	goto	u1350
  1827     039B                     u1351:
  1828     039B  2BA7               	goto	l1626
  1829     039C                     u1350:
  1830     039C                     l1622:
  1831     039C  301E               	movlw	30
  1832     039D  063B               	xorwf	_bufferin+27,w
  1833     039E  1D03               	btfss	3,2
  1834     039F  2BA1               	goto	u1361
  1835     03A0  2BA2               	goto	u1360
  1836     03A1                     u1361:
  1837     03A1  2BA7               	goto	l1626
  1838     03A2                     u1360:
  1839     03A2                     l1624:
  1840                           
  1841                           ;newmain14.c: 509:         {;newmain14.c: 510:             cMillon = 0x30;
  1842     03A2  3030               	movlw	48
  1843     03A3  00D8               	movwf	_cMillon
  1844                           
  1845                           ;newmain14.c: 511:             dMil = 0x30;
  1846     03A4  3030               	movlw	48
  1847     03A5  00D9               	movwf	_dMil
  1848     03A6  2886               	goto	l1360
  1849     03A7                     l1626:
  1850     03A7  2886               	goto	l1360
  1851     03A8  118A  280D         	ljmp	start
  1852     03AA                     __end_of_main:
  1853                           
  1854                           	psect	text1
  1855     0534                     __ptext1:	
  1856 ;; *************** function _setup_timer *****************
  1857 ;; Defined at:
  1858 ;;		line 195 in file "newmain14.c"
  1859 ;; Parameters:    Size  Location     Type
  1860 ;;		None
  1861 ;; Auto vars:     Size  Location     Type
  1862 ;;		None
  1863 ;; Return value:  Size  Location     Type
  1864 ;;                  1    wreg      void 
  1865 ;; Registers used:
  1866 ;;		wreg, status,2, status,0
  1867 ;; Tracked objects:
  1868 ;;		On entry : 0/0
  1869 ;;		On exit  : 0/0
  1870 ;;		Unchanged: 0/0
  1871 ;; Data sizes:     COMMON   BANK0   BANK1
  1872 ;;      Params:         0       0       0
  1873 ;;      Locals:         0       0       0
  1874 ;;      Temps:          0       0       0
  1875 ;;      Totals:         0       0       0
  1876 ;;Total ram usage:        0 bytes
  1877 ;; Hardware stack levels used: 1
  1878 ;; Hardware stack levels required when called: 1
  1879 ;; This function calls:
  1880 ;;		Nothing
  1881 ;; This function is called by:
  1882 ;;		_main
  1883 ;; This function uses a non-reentrant model
  1884 ;;
  1885                           
  1886     0534                     _setup_timer:	
  1887                           ;psect for function _setup_timer
  1888                           
  1889     0534                     l1210:	
  1890                           ;incstack = 0
  1891                           ; Regs used in _setup_timer: [wreg+status,2+status,0]
  1892                           
  1893                           
  1894                           ;newmain14.c: 196:     TMR0 = 0;
  1895     0534  1283               	bcf	3,5	;RP0=0, select bank0
  1896     0535  1303               	bcf	3,6	;RP1=0, select bank0
  1897     0536  0181               	clrf	1	;volatile
  1898     0537                     l1212:
  1899                           
  1900                           ;newmain14.c: 197:     OPTION_REGbits.T0CS = 0;
  1901     0537  1683               	bsf	3,5	;RP0=1, select bank1
  1902     0538  1303               	bcf	3,6	;RP1=0, select bank1
  1903     0539  1281               	bcf	1,5	;volatile
  1904     053A                     l1214:
  1905                           
  1906                           ;newmain14.c: 198:     OPTION_REGbits.PSA = 0;
  1907     053A  1181               	bcf	1,3	;volatile
  1908     053B                     l1216:
  1909                           
  1910                           ;newmain14.c: 199:     OPTION_REGbits.PS = 0b010;
  1911     053B  0801               	movf	1,w	;volatile
  1912     053C  39F8               	andlw	-8
  1913     053D  3802               	iorlw	2
  1914     053E  0081               	movwf	1	;volatile
  1915     053F                     l1218:
  1916                           
  1917                           ;newmain14.c: 200:     INTCONbits.TMR0IE = 0;
  1918     053F  128B               	bcf	11,5	;volatile
  1919     0540                     l1220:
  1920                           
  1921                           ;newmain14.c: 201:     INTCONbits.TMR0IF = 0;
  1922     0540  110B               	bcf	11,2	;volatile
  1923     0541                     l1222:
  1924                           
  1925                           ;newmain14.c: 202:     INTCONbits.GIE = 1;
  1926     0541  178B               	bsf	11,7	;volatile
  1927     0542                     l1224:
  1928                           
  1929                           ;newmain14.c: 203:     INTCONbits.PEIE = 1;
  1930     0542  170B               	bsf	11,6	;volatile
  1931     0543                     l112:
  1932     0543  0008               	return
  1933     0544                     __end_of_setup_timer:
  1934                           
  1935                           	psect	text2
  1936     03AA                     __ptext2:	
  1937 ;; *************** function _send_byte *****************
  1938 ;; Defined at:
  1939 ;;		line 207 in file "newmain14.c"
  1940 ;; Parameters:    Size  Location     Type
  1941 ;;  data            1    wreg     unsigned char 
  1942 ;; Auto vars:     Size  Location     Type
  1943 ;;  data            1    4[BANK0 ] unsigned char 
  1944 ;;  i               1    5[BANK0 ] unsigned char 
  1945 ;;  parity          1    3[BANK0 ] unsigned char 
  1946 ;; Return value:  Size  Location     Type
  1947 ;;                  1    wreg      void 
  1948 ;; Registers used:
  1949 ;;		wreg, status,2, status,0, btemp+1
  1950 ;; Tracked objects:
  1951 ;;		On entry : 0/0
  1952 ;;		On exit  : 0/0
  1953 ;;		Unchanged: 0/0
  1954 ;; Data sizes:     COMMON   BANK0   BANK1
  1955 ;;      Params:         0       0       0
  1956 ;;      Locals:         0       3       0
  1957 ;;      Temps:          0       1       0
  1958 ;;      Totals:         0       4       0
  1959 ;;Total ram usage:        4 bytes
  1960 ;; Hardware stack levels used: 1
  1961 ;; Hardware stack levels required when called: 1
  1962 ;; This function calls:
  1963 ;;		Nothing
  1964 ;; This function is called by:
  1965 ;;		_main
  1966 ;; This function uses a non-reentrant model
  1967 ;;
  1968                           
  1969     03AA                     _send_byte:	
  1970                           ;psect for function _send_byte
  1971                           
  1972                           
  1973                           ;incstack = 0
  1974                           ; Regs used in _send_byte: [wreg+status,2+status,0+btemp+1]
  1975                           ;send_byte@data stored from wreg
  1976     03AA  1283               	bcf	3,5	;RP0=0, select bank0
  1977     03AB  1303               	bcf	3,6	;RP1=0, select bank0
  1978     03AC  00C8               	movwf	send_byte@data
  1979     03AD                     l1226:
  1980                           
  1981                           ;newmain14.c: 208:     unsigned char i, parity = 0;
  1982     03AD  01C7               	clrf	send_byte@parity
  1983     03AE                     l1228:
  1984                           
  1985                           ;newmain14.c: 211:     PORTCbits.RC6 = 1;
  1986     03AE  1707               	bsf	7,6	;volatile
  1987     03AF                     l1230:
  1988                           
  1989                           ;newmain14.c: 212:     _delay((unsigned long)((48)*(3686400/4000000.0)));
  1990     03AF  300E               	movlw	14
  1991     03B0  1283               	bcf	3,5	;RP0=0, select bank0
  1992     03B1  1303               	bcf	3,6	;RP1=0, select bank0
  1993     03B2  00C6               	movwf	??_send_byte
  1994     03B3                     u1377:
  1995     03B3  0BC6               	decfsz	??_send_byte,f
  1996     03B4  2BB3               	goto	u1377
  1997     03B5                     l1232:
  1998                           
  1999                           ;newmain14.c: 215:     for (i = 0; i < 8; i++) {
  2000     03B5  1283               	bcf	3,5	;RP0=0, select bank0
  2001     03B6  1303               	bcf	3,6	;RP1=0, select bank0
  2002     03B7  01C9               	clrf	send_byte@i
  2003     03B8                     l1236:
  2004                           
  2005                           ;newmain14.c: 216:         PORTCbits.RC6 = !((data >> i) & 0x01);
  2006     03B8  0848               	movf	send_byte@data,w
  2007     03B9  00C6               	movwf	??_send_byte
  2008     03BA  0A49               	incf	send_byte@i,w
  2009     03BB  2BBE               	goto	u754
  2010     03BC                     u755:
  2011     03BC  1003               	clrc
  2012     03BD  0CC6               	rrf	??_send_byte,f
  2013     03BE                     u754:
  2014     03BE  3EFF               	addlw	-1
  2015     03BF  1D03               	skipz
  2016     03C0  2BBC               	goto	u755
  2017     03C1  1C46               	btfss	??_send_byte,0
  2018     03C2  2BC4               	goto	u761
  2019     03C3  2BC8               	goto	u760
  2020     03C4                     u761:
  2021     03C4  1283               	bcf	3,5	;RP0=0, select bank0
  2022     03C5  1303               	bcf	3,6	;RP1=0, select bank0
  2023     03C6  1707               	bsf	7,6	;volatile
  2024     03C7  2BCB               	goto	u774
  2025     03C8                     u760:
  2026     03C8  1283               	bcf	3,5	;RP0=0, select bank0
  2027     03C9  1303               	bcf	3,6	;RP1=0, select bank0
  2028     03CA  1307               	bcf	7,6	;volatile
  2029     03CB                     u774:
  2030     03CB                     l1238:
  2031                           
  2032                           ;newmain14.c: 217:         parity ^= !((data >> i) & 0x01);
  2033     03CB  0848               	movf	send_byte@data,w
  2034     03CC  00C6               	movwf	??_send_byte
  2035     03CD  0A49               	incf	send_byte@i,w
  2036     03CE  2BD1               	goto	u784
  2037     03CF                     u785:
  2038     03CF  1003               	clrc
  2039     03D0  0CC6               	rrf	??_send_byte,f
  2040     03D1                     u784:
  2041     03D1  3EFF               	addlw	-1
  2042     03D2  1D03               	skipz
  2043     03D3  2BCF               	goto	u785
  2044     03D4  1C46               	btfss	??_send_byte,0
  2045     03D5  2BD7               	goto	u791
  2046     03D6  2BD9               	goto	u790
  2047     03D7                     u791:
  2048     03D7  3001               	movlw	1
  2049     03D8  2BDA               	goto	u800
  2050     03D9                     u790:
  2051     03D9  3000               	movlw	0
  2052     03DA                     u800:
  2053     03DA  00FF               	movwf	btemp+1
  2054     03DB  087F               	movf	btemp+1,w
  2055     03DC  06C7               	xorwf	send_byte@parity,f
  2056     03DD                     l1240:
  2057                           
  2058                           ;newmain14.c: 218:         _delay((unsigned long)((48)*(3686400/4000000.0)));
  2059     03DD  300E               	movlw	14
  2060     03DE  1283               	bcf	3,5	;RP0=0, select bank0
  2061     03DF  1303               	bcf	3,6	;RP1=0, select bank0
  2062     03E0  00C6               	movwf	??_send_byte
  2063     03E1                     u1387:
  2064     03E1  0BC6               	decfsz	??_send_byte,f
  2065     03E2  2BE1               	goto	u1387
  2066     03E3                     l1242:
  2067                           
  2068                           ;newmain14.c: 219:     }
  2069     03E3  3001               	movlw	1
  2070     03E4  00FF               	movwf	btemp+1
  2071     03E5  087F               	movf	btemp+1,w
  2072     03E6  1283               	bcf	3,5	;RP0=0, select bank0
  2073     03E7  1303               	bcf	3,6	;RP1=0, select bank0
  2074     03E8  07C9               	addwf	send_byte@i,f
  2075     03E9                     l1244:
  2076     03E9  3008               	movlw	8
  2077     03EA  0249               	subwf	send_byte@i,w
  2078     03EB  1C03               	skipc
  2079     03EC  2BEE               	goto	u811
  2080     03ED  2BEF               	goto	u810
  2081     03EE                     u811:
  2082     03EE  2BB8               	goto	l1236
  2083     03EF                     u810:
  2084     03EF                     l1246:
  2085                           
  2086                           ;newmain14.c: 222:     PORTCbits.RC6 = !parity;
  2087     03EF  0847               	movf	send_byte@parity,w
  2088     03F0  1903               	btfsc	3,2
  2089     03F1  2BF3               	goto	u821
  2090     03F2  2BF7               	goto	u820
  2091     03F3                     u821:
  2092     03F3  1283               	bcf	3,5	;RP0=0, select bank0
  2093     03F4  1303               	bcf	3,6	;RP1=0, select bank0
  2094     03F5  1707               	bsf	7,6	;volatile
  2095     03F6  2BFA               	goto	u834
  2096     03F7                     u820:
  2097     03F7  1283               	bcf	3,5	;RP0=0, select bank0
  2098     03F8  1303               	bcf	3,6	;RP1=0, select bank0
  2099     03F9  1307               	bcf	7,6	;volatile
  2100     03FA                     u834:
  2101     03FA                     l1248:
  2102                           
  2103                           ;newmain14.c: 223:     _delay((unsigned long)((48)*(3686400/4000000.0)));
  2104     03FA  300E               	movlw	14
  2105     03FB  1283               	bcf	3,5	;RP0=0, select bank0
  2106     03FC  1303               	bcf	3,6	;RP1=0, select bank0
  2107     03FD  00C6               	movwf	??_send_byte
  2108     03FE                     u1397:
  2109     03FE  0BC6               	decfsz	??_send_byte,f
  2110     03FF  2BFE               	goto	u1397
  2111     0400                     l1250:
  2112                           
  2113                           ;newmain14.c: 226:     PORTCbits.RC6 = 0;
  2114     0400  1283               	bcf	3,5	;RP0=0, select bank0
  2115     0401  1303               	bcf	3,6	;RP1=0, select bank0
  2116     0402  1307               	bcf	7,6	;volatile
  2117     0403                     l1252:
  2118                           
  2119                           ;newmain14.c: 227:     _delay((unsigned long)((48)*(3686400/4000000.0)));
  2120     0403  300E               	movlw	14
  2121     0404  1283               	bcf	3,5	;RP0=0, select bank0
  2122     0405  1303               	bcf	3,6	;RP1=0, select bank0
  2123     0406  00C6               	movwf	??_send_byte
  2124     0407                     u1407:
  2125     0407  0BC6               	decfsz	??_send_byte,f
  2126     0408  2C07               	goto	u1407
  2127     0409                     l117:
  2128     0409  0008               	return
  2129     040A                     __end_of_send_byte:
  2130                           
  2131                           	psect	text3
  2132     040A                     __ptext3:	
  2133 ;; *************** function _receive_byte *****************
  2134 ;; Defined at:
  2135 ;;		line 232 in file "newmain14.c"
  2136 ;; Parameters:    Size  Location     Type
  2137 ;;		None
  2138 ;; Auto vars:     Size  Location     Type
  2139 ;;  i               1    5[BANK0 ] unsigned char 
  2140 ;;  parity          1    4[BANK0 ] unsigned char 
  2141 ;;  data            1    3[BANK0 ] unsigned char 
  2142 ;; Return value:  Size  Location     Type
  2143 ;;                  1    wreg      unsigned char 
  2144 ;; Registers used:
  2145 ;;		wreg, status,2, status,0, btemp+1
  2146 ;; Tracked objects:
  2147 ;;		On entry : 0/0
  2148 ;;		On exit  : 0/0
  2149 ;;		Unchanged: 0/0
  2150 ;; Data sizes:     COMMON   BANK0   BANK1
  2151 ;;      Params:         0       0       0
  2152 ;;      Locals:         0       3       0
  2153 ;;      Temps:          0       1       0
  2154 ;;      Totals:         0       4       0
  2155 ;;Total ram usage:        4 bytes
  2156 ;; Hardware stack levels used: 1
  2157 ;; Hardware stack levels required when called: 1
  2158 ;; This function calls:
  2159 ;;		Nothing
  2160 ;; This function is called by:
  2161 ;;		_main
  2162 ;; This function uses a non-reentrant model
  2163 ;;
  2164                           
  2165     040A                     _receive_byte:	
  2166                           ;psect for function _receive_byte
  2167                           
  2168     040A                     l1254:	
  2169                           ;incstack = 0
  2170                           ; Regs used in _receive_byte: [wreg+status,2+status,0+btemp+1]
  2171                           
  2172                           
  2173                           ;newmain14.c: 233:     unsigned char i, data = 0, parity = 0;
  2174     040A  1283               	bcf	3,5	;RP0=0, select bank0
  2175     040B  1303               	bcf	3,6	;RP1=0, select bank0
  2176     040C  01C7               	clrf	receive_byte@data
  2177     040D  01C8               	clrf	receive_byte@parity
  2178     040E                     l120:	
  2179                           ;newmain14.c: 236:     while (PORTCbits.RC7 == 0);
  2180                           
  2181     040E  1F87               	btfss	7,7	;volatile
  2182     040F  2C11               	goto	u841
  2183     0410  2C12               	goto	u840
  2184     0411                     u841:
  2185     0411  2C0E               	goto	l120
  2186     0412                     u840:
  2187     0412                     l1256:
  2188                           
  2189                           ;newmain14.c: 238:     _delay((unsigned long)((48 / 2)*(3686400/4000000.0)));
  2190     0412  3006               	movlw	6
  2191     0413  1283               	bcf	3,5	;RP0=0, select bank0
  2192     0414  1303               	bcf	3,6	;RP1=0, select bank0
  2193     0415  00C6               	movwf	??_receive_byte
  2194     0416                     u1417:
  2195     0416  0BC6               	decfsz	??_receive_byte,f
  2196     0417  2C16               	goto	u1417
  2197     0418  2C19               	nop2
  2198     0419                     l1258:
  2199                           
  2200                           ;newmain14.c: 241:     for (i = 0; i < 8; i++) {
  2201     0419  1283               	bcf	3,5	;RP0=0, select bank0
  2202     041A  1303               	bcf	3,6	;RP1=0, select bank0
  2203     041B  01C9               	clrf	receive_byte@i
  2204     041C                     l1264:
  2205                           
  2206                           ;newmain14.c: 242:         _delay((unsigned long)((48)*(3686400/4000000.0)));
  2207     041C  300E               	movlw	14
  2208     041D  1283               	bcf	3,5	;RP0=0, select bank0
  2209     041E  1303               	bcf	3,6	;RP1=0, select bank0
  2210     041F  00C6               	movwf	??_receive_byte
  2211     0420                     u1427:
  2212     0420  0BC6               	decfsz	??_receive_byte,f
  2213     0421  2C20               	goto	u1427
  2214     0422                     l1266:
  2215                           
  2216                           ;newmain14.c: 243:         data |= (!PORTCbits.RC7 << i);
  2217     0422  1003               	clrc
  2218     0423  1283               	bcf	3,5	;RP0=0, select bank0
  2219     0424  1303               	bcf	3,6	;RP1=0, select bank0
  2220     0425  1F87               	btfss	7,7	;volatile
  2221     0426  1403               	setc
  2222     0427  3000               	movlw	0
  2223     0428  1803               	skipnc
  2224     0429  3001               	movlw	1
  2225     042A  00C6               	movwf	??_receive_byte
  2226     042B  0A49               	incf	receive_byte@i,w
  2227     042C  2C2F               	goto	u854
  2228     042D                     u855:
  2229     042D  1003               	clrc
  2230     042E  0DC6               	rlf	??_receive_byte,f
  2231     042F                     u854:
  2232     042F  3EFF               	addlw	-1
  2233     0430  1D03               	skipz
  2234     0431  2C2D               	goto	u855
  2235     0432  0846               	movf	??_receive_byte,w
  2236     0433  00FF               	movwf	btemp+1
  2237     0434  087F               	movf	btemp+1,w
  2238     0435  04C7               	iorwf	receive_byte@data,f
  2239     0436                     l1268:
  2240                           
  2241                           ;newmain14.c: 244:         parity ^= !PORTCbits.RC7;
  2242     0436  1003               	clrc
  2243     0437  1F87               	btfss	7,7	;volatile
  2244     0438  1403               	setc
  2245     0439  3000               	movlw	0
  2246     043A  1803               	skipnc
  2247     043B  3001               	movlw	1
  2248     043C  00FF               	movwf	btemp+1
  2249     043D  087F               	movf	btemp+1,w
  2250     043E  06C8               	xorwf	receive_byte@parity,f
  2251     043F                     l1270:
  2252                           
  2253                           ;newmain14.c: 245:     }
  2254     043F  3001               	movlw	1
  2255     0440  00FF               	movwf	btemp+1
  2256     0441  087F               	movf	btemp+1,w
  2257     0442  07C9               	addwf	receive_byte@i,f
  2258     0443                     l1272:
  2259     0443  3008               	movlw	8
  2260     0444  0249               	subwf	receive_byte@i,w
  2261     0445  1C03               	skipc
  2262     0446  2C48               	goto	u861
  2263     0447  2C49               	goto	u860
  2264     0448                     u861:
  2265     0448  2C1C               	goto	l1264
  2266     0449                     u860:
  2267     0449                     l1274:
  2268                           
  2269                           ;newmain14.c: 248:     _delay((unsigned long)((48)*(3686400/4000000.0)));
  2270     0449  300E               	movlw	14
  2271     044A  1283               	bcf	3,5	;RP0=0, select bank0
  2272     044B  1303               	bcf	3,6	;RP1=0, select bank0
  2273     044C  00C6               	movwf	??_receive_byte
  2274     044D                     u1437:
  2275     044D  0BC6               	decfsz	??_receive_byte,f
  2276     044E  2C4D               	goto	u1437
  2277     044F                     l1276:
  2278                           
  2279                           ;newmain14.c: 249:     if (parity != !PORTCbits.RC7) {
  2280     044F  1283               	bcf	3,5	;RP0=0, select bank0
  2281     0450  1303               	bcf	3,6	;RP1=0, select bank0
  2282     0451  0807               	movf	7,w	;volatile
  2283     0452                     l1278:
  2284                           
  2285                           ;newmain14.c: 254:     _delay((unsigned long)((48)*(3686400/4000000.0)));
  2286     0452  300E               	movlw	14
  2287     0453  1283               	bcf	3,5	;RP0=0, select bank0
  2288     0454  1303               	bcf	3,6	;RP1=0, select bank0
  2289     0455  00C6               	movwf	??_receive_byte
  2290     0456                     u1447:
  2291     0456  0BC6               	decfsz	??_receive_byte,f
  2292     0457  2C56               	goto	u1447
  2293     0458                     l1280:
  2294                           
  2295                           ;newmain14.c: 255:     if (PORTCbits.RC7 == 0) {
  2296     0458  1283               	bcf	3,5	;RP0=0, select bank0
  2297     0459  1303               	bcf	3,6	;RP1=0, select bank0
  2298     045A  0807               	movf	7,w	;volatile
  2299     045B                     l1282:
  2300                           
  2301                           ;newmain14.c: 259:     return data;
  2302     045B  0847               	movf	receive_byte@data,w
  2303     045C                     l127:
  2304     045C  0008               	return
  2305     045D                     __end_of_receive_byte:
  2306                           
  2307                           	psect	text4
  2308     04F3                     __ptext4:	
  2309 ;; *************** function _initMAXs *****************
  2310 ;; Defined at:
  2311 ;;		line 180 in file "newmain14.c"
  2312 ;; Parameters:    Size  Location     Type
  2313 ;;		None
  2314 ;; Auto vars:     Size  Location     Type
  2315 ;;		None
  2316 ;; Return value:  Size  Location     Type
  2317 ;;                  1    wreg      void 
  2318 ;; Registers used:
  2319 ;;		wreg, status,2, status,0, btemp+1, pclath, cstack
  2320 ;; Tracked objects:
  2321 ;;		On entry : 0/0
  2322 ;;		On exit  : 0/0
  2323 ;;		Unchanged: 0/0
  2324 ;; Data sizes:     COMMON   BANK0   BANK1
  2325 ;;      Params:         0       0       0
  2326 ;;      Locals:         0       0       0
  2327 ;;      Temps:          0       0       0
  2328 ;;      Totals:         0       0       0
  2329 ;;Total ram usage:        0 bytes
  2330 ;; Hardware stack levels used: 1
  2331 ;; Hardware stack levels required when called: 3
  2332 ;; This function calls:
  2333 ;;		_COMAX7219_send
  2334 ;;		_MAX7219_send
  2335 ;; This function is called by:
  2336 ;;		_main
  2337 ;; This function uses a non-reentrant model
  2338 ;;
  2339                           
  2340     04F3                     _initMAXs:	
  2341                           ;psect for function _initMAXs
  2342                           
  2343     04F3                     l1208:	
  2344                           ;incstack = 0
  2345                           ; Regs used in _initMAXs: [wreg+status,2+status,0+btemp+1+pclath+cstack]
  2346                           
  2347                           
  2348                           ;newmain14.c: 181:    MAX7219_send(0x0A, 0x0F);
  2349     04F3  300F               	movlw	15
  2350     04F4  1283               	bcf	3,5	;RP0=0, select bank0
  2351     04F5  1303               	bcf	3,6	;RP1=0, select bank0
  2352     04F6  00C6               	movwf	MAX7219_send@dat
  2353     04F7  300A               	movlw	10
  2354     04F8  118A  245D  118A   	fcall	_MAX7219_send
  2355                           
  2356                           ;newmain14.c: 182:    COMAX7219_send(0x0A, 0X0F);
  2357     04FB  300F               	movlw	15
  2358     04FC  1283               	bcf	3,5	;RP0=0, select bank0
  2359     04FD  1303               	bcf	3,6	;RP1=0, select bank0
  2360     04FE  00C6               	movwf	COMAX7219_send@dat
  2361     04FF  300A               	movlw	10
  2362     0500  118A  24A8  118A   	fcall	_COMAX7219_send
  2363                           
  2364                           ;newmain14.c: 183:    MAX7219_send(0x09, 0xFF);
  2365     0503  30FF               	movlw	255
  2366     0504  1283               	bcf	3,5	;RP0=0, select bank0
  2367     0505  1303               	bcf	3,6	;RP1=0, select bank0
  2368     0506  00C6               	movwf	MAX7219_send@dat
  2369     0507  3009               	movlw	9
  2370     0508  118A  245D  118A   	fcall	_MAX7219_send
  2371                           
  2372                           ;newmain14.c: 184:    COMAX7219_send(0x09, 0xFF);
  2373     050B  30FF               	movlw	255
  2374     050C  1283               	bcf	3,5	;RP0=0, select bank0
  2375     050D  1303               	bcf	3,6	;RP1=0, select bank0
  2376     050E  00C6               	movwf	COMAX7219_send@dat
  2377     050F  3009               	movlw	9
  2378     0510  118A  24A8  118A   	fcall	_COMAX7219_send
  2379                           
  2380                           ;newmain14.c: 185:    MAX7219_send(0x0B, 0X07);
  2381     0513  3007               	movlw	7
  2382     0514  1283               	bcf	3,5	;RP0=0, select bank0
  2383     0515  1303               	bcf	3,6	;RP1=0, select bank0
  2384     0516  00C6               	movwf	MAX7219_send@dat
  2385     0517  300B               	movlw	11
  2386     0518  118A  245D  118A   	fcall	_MAX7219_send
  2387                           
  2388                           ;newmain14.c: 186:    COMAX7219_send(0x0B, 0X07);
  2389     051B  3007               	movlw	7
  2390     051C  1283               	bcf	3,5	;RP0=0, select bank0
  2391     051D  1303               	bcf	3,6	;RP1=0, select bank0
  2392     051E  00C6               	movwf	COMAX7219_send@dat
  2393     051F  300B               	movlw	11
  2394     0520  118A  24A8  118A   	fcall	_COMAX7219_send
  2395                           
  2396                           ;newmain14.c: 187:    MAX7219_send(0x0C, 0X01);
  2397     0523  1283               	bcf	3,5	;RP0=0, select bank0
  2398     0524  1303               	bcf	3,6	;RP1=0, select bank0
  2399     0525  01C6               	clrf	MAX7219_send@dat
  2400     0526  0AC6               	incf	MAX7219_send@dat,f
  2401     0527  300C               	movlw	12
  2402     0528  118A  245D  118A   	fcall	_MAX7219_send
  2403                           
  2404                           ;newmain14.c: 188:    COMAX7219_send(0x0C, 0X01);
  2405     052B  1283               	bcf	3,5	;RP0=0, select bank0
  2406     052C  1303               	bcf	3,6	;RP1=0, select bank0
  2407     052D  01C6               	clrf	COMAX7219_send@dat
  2408     052E  0AC6               	incf	COMAX7219_send@dat,f
  2409     052F  300C               	movlw	12
  2410     0530  118A  24A8  118A   	fcall	_COMAX7219_send
  2411     0533                     l109:
  2412     0533  0008               	return
  2413     0534                     __end_of_initMAXs:
  2414                           
  2415                           	psect	text5
  2416     045D                     __ptext5:	
  2417 ;; *************** function _MAX7219_send *****************
  2418 ;; Defined at:
  2419 ;;		line 144 in file "newmain14.c"
  2420 ;; Parameters:    Size  Location     Type
  2421 ;;  reg             1    wreg     unsigned char 
  2422 ;;  dat             1    2[BANK0 ] unsigned char 
  2423 ;; Auto vars:     Size  Location     Type
  2424 ;;  reg             1    9[BANK0 ] unsigned char 
  2425 ;;  i               1   10[BANK0 ] unsigned char 
  2426 ;;  d               2    7[BANK0 ] unsigned short 
  2427 ;; Return value:  Size  Location     Type
  2428 ;;                  1    wreg      void 
  2429 ;; Registers used:
  2430 ;;		wreg, status,2, status,0, btemp+1, pclath, cstack
  2431 ;; Tracked objects:
  2432 ;;		On entry : 0/0
  2433 ;;		On exit  : 0/0
  2434 ;;		Unchanged: 0/0
  2435 ;; Data sizes:     COMMON   BANK0   BANK1
  2436 ;;      Params:         0       1       0
  2437 ;;      Locals:         0       4       0
  2438 ;;      Temps:          0       4       0
  2439 ;;      Totals:         0       9       0
  2440 ;;Total ram usage:        9 bytes
  2441 ;; Hardware stack levels used: 1
  2442 ;; Hardware stack levels required when called: 2
  2443 ;; This function calls:
  2444 ;;		_MAX_CLK_setHigh
  2445 ;;		_MAX_CLK_setLow
  2446 ;;		_MAX_DIN_setHigh
  2447 ;;		_MAX_DIN_setLow
  2448 ;;		_MAX_LAT_setHigh
  2449 ;;		_MAX_LAT_setLow
  2450 ;; This function is called by:
  2451 ;;		_initMAXs
  2452 ;;		_main
  2453 ;; This function uses a non-reentrant model
  2454 ;;
  2455                           
  2456     045D                     _MAX7219_send:	
  2457                           ;psect for function _MAX7219_send
  2458                           
  2459                           
  2460                           ;incstack = 0
  2461                           ; Regs used in _MAX7219_send: [wreg+status,2+status,0+btemp+1+pclath+cstack]
  2462                           ;MAX7219_send@reg stored from wreg
  2463     045D  1283               	bcf	3,5	;RP0=0, select bank0
  2464     045E  1303               	bcf	3,6	;RP1=0, select bank0
  2465     045F  00CD               	movwf	MAX7219_send@reg
  2466     0460                     l1168:
  2467                           
  2468                           ;newmain14.c: 144: void MAX7219_send(uint8_t reg, uint8_t dat);newmain14.c: 145:     {;n
      +                          ewmain14.c: 146:     uint16_t d=(reg<<8)|dat;
  2469     0460  0846               	movf	MAX7219_send@dat,w
  2470     0461  00C7               	movwf	??_MAX7219_send
  2471     0462  01C8               	clrf	??_MAX7219_send+1
  2472     0463  084D               	movf	MAX7219_send@reg,w
  2473     0464  00C9               	movwf	??_MAX7219_send+2
  2474     0465  01CA               	clrf	??_MAX7219_send+3
  2475     0466  0849               	movf	??_MAX7219_send+2,w
  2476     0467  00CA               	movwf	??_MAX7219_send+3
  2477     0468  01C9               	clrf	??_MAX7219_send+2
  2478     0469  0847               	movf	??_MAX7219_send,w
  2479     046A  0449               	iorwf	??_MAX7219_send+2,w
  2480     046B  00CB               	movwf	MAX7219_send@d
  2481     046C  0848               	movf	??_MAX7219_send+1,w
  2482     046D  044A               	iorwf	??_MAX7219_send+3,w
  2483     046E  00CC               	movwf	MAX7219_send@d+1
  2484     046F                     l1170:
  2485                           
  2486                           ;newmain14.c: 147:     for (uint8_t i=0; i<16; i++)
  2487     046F  01CE               	clrf	MAX7219_send@i
  2488     0470                     l1176:
  2489                           
  2490                           ;newmain14.c: 148:         {;newmain14.c: 149:           if (d & (0x8000>>i))
  2491     0470  3000               	movlw	0
  2492     0471  00C7               	movwf	??_MAX7219_send
  2493     0472  3080               	movlw	128
  2494     0473  00C8               	movwf	??_MAX7219_send+1
  2495     0474  0A4E               	incf	MAX7219_send@i,w
  2496     0475  2C79               	goto	u694
  2497     0476                     u695:
  2498     0476  1003               	clrc
  2499     0477  0CC8               	rrf	??_MAX7219_send+1,f
  2500     0478  0CC7               	rrf	??_MAX7219_send,f
  2501     0479                     u694:
  2502     0479  3EFF               	addlw	-1
  2503     047A  1D03               	skipz
  2504     047B  2C76               	goto	u695
  2505     047C  084B               	movf	MAX7219_send@d,w
  2506     047D  0547               	andwf	??_MAX7219_send,w
  2507     047E  00C9               	movwf	??_MAX7219_send+2
  2508     047F  084C               	movf	MAX7219_send@d+1,w
  2509     0480  0548               	andwf	??_MAX7219_send+1,w
  2510     0481  00CA               	movwf	??_MAX7219_send+3
  2511     0482  0849               	movf	??_MAX7219_send+2,w
  2512     0483  044A               	iorwf	??_MAX7219_send+3,w
  2513     0484  1903               	btfsc	3,2
  2514     0485  2C87               	goto	u701
  2515     0486  2C88               	goto	u700
  2516     0487                     u701:
  2517     0487  2C8C               	goto	l1180
  2518     0488                     u700:
  2519     0488                     l1178:
  2520                           
  2521                           ;newmain14.c: 150:             {MAX_DIN_setHigh();}
  2522     0488  118A  256B  118A   	fcall	_MAX_DIN_setHigh
  2523     048B  2C8F               	goto	l98
  2524     048C                     l1180:
  2525                           
  2526                           ;newmain14.c: 152:             {MAX_DIN_setLow();}
  2527     048C  118A  2567  118A   	fcall	_MAX_DIN_setLow
  2528     048F                     l98:
  2529                           
  2530                           ;newmain14.c: 153:         MAX_CLK_setHigh();
  2531     048F  118A  2573  118A   	fcall	_MAX_CLK_setHigh
  2532                           
  2533                           ;newmain14.c: 154:         MAX_CLK_setLow();
  2534     0492  118A  256F  118A   	fcall	_MAX_CLK_setLow
  2535     0495                     l1182:
  2536                           
  2537                           ;newmain14.c: 155:         }
  2538     0495  3001               	movlw	1
  2539     0496  00FF               	movwf	btemp+1
  2540     0497  087F               	movf	btemp+1,w
  2541     0498  1283               	bcf	3,5	;RP0=0, select bank0
  2542     0499  1303               	bcf	3,6	;RP1=0, select bank0
  2543     049A  07CE               	addwf	MAX7219_send@i,f
  2544     049B                     l1184:
  2545     049B  3010               	movlw	16
  2546     049C  024E               	subwf	MAX7219_send@i,w
  2547     049D  1C03               	skipc
  2548     049E  2CA0               	goto	u711
  2549     049F  2CA1               	goto	u710
  2550     04A0                     u711:
  2551     04A0  2C70               	goto	l1176
  2552     04A1                     u710:
  2553     04A1                     l1186:
  2554                           
  2555                           ;newmain14.c: 156:     MAX_LAT_setHigh();
  2556     04A1  118A  2563  118A   	fcall	_MAX_LAT_setHigh
  2557                           
  2558                           ;newmain14.c: 157:     MAX_LAT_setLow();
  2559     04A4  118A  255F  118A   	fcall	_MAX_LAT_setLow
  2560     04A7                     l99:
  2561     04A7  0008               	return
  2562     04A8                     __end_of_MAX7219_send:
  2563                           
  2564                           	psect	text6
  2565     055F                     __ptext6:	
  2566 ;; *************** function _MAX_LAT_setLow *****************
  2567 ;; Defined at:
  2568 ;;		line 126 in file "newmain14.c"
  2569 ;; Parameters:    Size  Location     Type
  2570 ;;		None
  2571 ;; Auto vars:     Size  Location     Type
  2572 ;;		None
  2573 ;; Return value:  Size  Location     Type
  2574 ;;                  1    wreg      void 
  2575 ;; Registers used:
  2576 ;;		None
  2577 ;; Tracked objects:
  2578 ;;		On entry : 0/0
  2579 ;;		On exit  : 0/0
  2580 ;;		Unchanged: 0/0
  2581 ;; Data sizes:     COMMON   BANK0   BANK1
  2582 ;;      Params:         0       0       0
  2583 ;;      Locals:         0       0       0
  2584 ;;      Temps:          0       0       0
  2585 ;;      Totals:         0       0       0
  2586 ;;Total ram usage:        0 bytes
  2587 ;; Hardware stack levels used: 1
  2588 ;; Hardware stack levels required when called: 1
  2589 ;; This function calls:
  2590 ;;		Nothing
  2591 ;; This function is called by:
  2592 ;;		_MAX7219_send
  2593 ;; This function uses a non-reentrant model
  2594 ;;
  2595                           
  2596     055F                     _MAX_LAT_setLow:	
  2597                           ;psect for function _MAX_LAT_setLow
  2598                           
  2599     055F                     l1160:	
  2600                           ;incstack = 0
  2601                           ; Regs used in _MAX_LAT_setLow: []
  2602                           
  2603                           
  2604                           ;newmain14.c: 127:     RC1=0;
  2605     055F  1283               	bcf	3,5	;RP0=0, select bank0
  2606     0560  1303               	bcf	3,6	;RP1=0, select bank0
  2607     0561  1087               	bcf	7,1	;volatile
  2608     0562                     l83:
  2609     0562  0008               	return
  2610     0563                     __end_of_MAX_LAT_setLow:
  2611                           
  2612                           	psect	text7
  2613     0563                     __ptext7:	
  2614 ;; *************** function _MAX_LAT_setHigh *****************
  2615 ;; Defined at:
  2616 ;;		line 134 in file "newmain14.c"
  2617 ;; Parameters:    Size  Location     Type
  2618 ;;		None
  2619 ;; Auto vars:     Size  Location     Type
  2620 ;;		None
  2621 ;; Return value:  Size  Location     Type
  2622 ;;                  1    wreg      void 
  2623 ;; Registers used:
  2624 ;;		None
  2625 ;; Tracked objects:
  2626 ;;		On entry : 0/0
  2627 ;;		On exit  : 0/0
  2628 ;;		Unchanged: 0/0
  2629 ;; Data sizes:     COMMON   BANK0   BANK1
  2630 ;;      Params:         0       0       0
  2631 ;;      Locals:         0       0       0
  2632 ;;      Temps:          0       0       0
  2633 ;;      Totals:         0       0       0
  2634 ;;Total ram usage:        0 bytes
  2635 ;; Hardware stack levels used: 1
  2636 ;; Hardware stack levels required when called: 1
  2637 ;; This function calls:
  2638 ;;		Nothing
  2639 ;; This function is called by:
  2640 ;;		_MAX7219_send
  2641 ;; This function uses a non-reentrant model
  2642 ;;
  2643                           
  2644     0563                     _MAX_LAT_setHigh:	
  2645                           ;psect for function _MAX_LAT_setHigh
  2646                           
  2647     0563                     l1164:	
  2648                           ;incstack = 0
  2649                           ; Regs used in _MAX_LAT_setHigh: []
  2650                           
  2651                           
  2652                           ;newmain14.c: 135:     RC1 = 1;
  2653     0563  1283               	bcf	3,5	;RP0=0, select bank0
  2654     0564  1303               	bcf	3,6	;RP1=0, select bank0
  2655     0565  1487               	bsf	7,1	;volatile
  2656     0566                     l89:
  2657     0566  0008               	return
  2658     0567                     __end_of_MAX_LAT_setHigh:
  2659                           
  2660                           	psect	text8
  2661     0567                     __ptext8:	
  2662 ;; *************** function _MAX_DIN_setLow *****************
  2663 ;; Defined at:
  2664 ;;		line 102 in file "newmain14.c"
  2665 ;; Parameters:    Size  Location     Type
  2666 ;;		None
  2667 ;; Auto vars:     Size  Location     Type
  2668 ;;		None
  2669 ;; Return value:  Size  Location     Type
  2670 ;;                  1    wreg      void 
  2671 ;; Registers used:
  2672 ;;		None
  2673 ;; Tracked objects:
  2674 ;;		On entry : 0/0
  2675 ;;		On exit  : 0/0
  2676 ;;		Unchanged: 0/0
  2677 ;; Data sizes:     COMMON   BANK0   BANK1
  2678 ;;      Params:         0       0       0
  2679 ;;      Locals:         0       0       0
  2680 ;;      Temps:          0       0       0
  2681 ;;      Totals:         0       0       0
  2682 ;;Total ram usage:        0 bytes
  2683 ;; Hardware stack levels used: 1
  2684 ;; Hardware stack levels required when called: 1
  2685 ;; This function calls:
  2686 ;;		Nothing
  2687 ;; This function is called by:
  2688 ;;		_MAX7219_send
  2689 ;; This function uses a non-reentrant model
  2690 ;;
  2691                           
  2692     0567                     _MAX_DIN_setLow:	
  2693                           ;psect for function _MAX_DIN_setLow
  2694                           
  2695     0567                     l1148:	
  2696                           ;incstack = 0
  2697                           ; Regs used in _MAX_DIN_setLow: []
  2698                           
  2699                           
  2700                           ;newmain14.c: 103:     RC0 = 0;
  2701     0567  1283               	bcf	3,5	;RP0=0, select bank0
  2702     0568  1303               	bcf	3,6	;RP1=0, select bank0
  2703     0569  1007               	bcf	7,0	;volatile
  2704     056A                     l65:
  2705     056A  0008               	return
  2706     056B                     __end_of_MAX_DIN_setLow:
  2707                           
  2708                           	psect	text9
  2709     056B                     __ptext9:	
  2710 ;; *************** function _MAX_DIN_setHigh *****************
  2711 ;; Defined at:
  2712 ;;		line 94 in file "newmain14.c"
  2713 ;; Parameters:    Size  Location     Type
  2714 ;;		None
  2715 ;; Auto vars:     Size  Location     Type
  2716 ;;		None
  2717 ;; Return value:  Size  Location     Type
  2718 ;;                  1    wreg      void 
  2719 ;; Registers used:
  2720 ;;		None
  2721 ;; Tracked objects:
  2722 ;;		On entry : 0/0
  2723 ;;		On exit  : 0/0
  2724 ;;		Unchanged: 0/0
  2725 ;; Data sizes:     COMMON   BANK0   BANK1
  2726 ;;      Params:         0       0       0
  2727 ;;      Locals:         0       0       0
  2728 ;;      Temps:          0       0       0
  2729 ;;      Totals:         0       0       0
  2730 ;;Total ram usage:        0 bytes
  2731 ;; Hardware stack levels used: 1
  2732 ;; Hardware stack levels required when called: 1
  2733 ;; This function calls:
  2734 ;;		Nothing
  2735 ;; This function is called by:
  2736 ;;		_MAX7219_send
  2737 ;; This function uses a non-reentrant model
  2738 ;;
  2739                           
  2740     056B                     _MAX_DIN_setHigh:	
  2741                           ;psect for function _MAX_DIN_setHigh
  2742                           
  2743     056B                     l1144:	
  2744                           ;incstack = 0
  2745                           ; Regs used in _MAX_DIN_setHigh: []
  2746                           
  2747                           
  2748                           ;newmain14.c: 95:     RC0 = 1;
  2749     056B  1283               	bcf	3,5	;RP0=0, select bank0
  2750     056C  1303               	bcf	3,6	;RP1=0, select bank0
  2751     056D  1407               	bsf	7,0	;volatile
  2752     056E                     l59:
  2753     056E  0008               	return
  2754     056F                     __end_of_MAX_DIN_setHigh:
  2755                           
  2756                           	psect	text10
  2757     056F                     __ptext10:	
  2758 ;; *************** function _MAX_CLK_setLow *****************
  2759 ;; Defined at:
  2760 ;;		line 118 in file "newmain14.c"
  2761 ;; Parameters:    Size  Location     Type
  2762 ;;		None
  2763 ;; Auto vars:     Size  Location     Type
  2764 ;;		None
  2765 ;; Return value:  Size  Location     Type
  2766 ;;                  1    wreg      void 
  2767 ;; Registers used:
  2768 ;;		None
  2769 ;; Tracked objects:
  2770 ;;		On entry : 0/0
  2771 ;;		On exit  : 0/0
  2772 ;;		Unchanged: 0/0
  2773 ;; Data sizes:     COMMON   BANK0   BANK1
  2774 ;;      Params:         0       0       0
  2775 ;;      Locals:         0       0       0
  2776 ;;      Temps:          0       0       0
  2777 ;;      Totals:         0       0       0
  2778 ;;Total ram usage:        0 bytes
  2779 ;; Hardware stack levels used: 1
  2780 ;; Hardware stack levels required when called: 1
  2781 ;; This function calls:
  2782 ;;		Nothing
  2783 ;; This function is called by:
  2784 ;;		_MAX7219_send
  2785 ;; This function uses a non-reentrant model
  2786 ;;
  2787                           
  2788     056F                     _MAX_CLK_setLow:	
  2789                           ;psect for function _MAX_CLK_setLow
  2790                           
  2791     056F                     l1156:	
  2792                           ;incstack = 0
  2793                           ; Regs used in _MAX_CLK_setLow: []
  2794                           
  2795                           
  2796                           ;newmain14.c: 119:     RC2 = 0;
  2797     056F  1283               	bcf	3,5	;RP0=0, select bank0
  2798     0570  1303               	bcf	3,6	;RP1=0, select bank0
  2799     0571  1107               	bcf	7,2	;volatile
  2800     0572                     l77:
  2801     0572  0008               	return
  2802     0573                     __end_of_MAX_CLK_setLow:
  2803                           
  2804                           	psect	text11
  2805     0573                     __ptext11:	
  2806 ;; *************** function _MAX_CLK_setHigh *****************
  2807 ;; Defined at:
  2808 ;;		line 110 in file "newmain14.c"
  2809 ;; Parameters:    Size  Location     Type
  2810 ;;		None
  2811 ;; Auto vars:     Size  Location     Type
  2812 ;;		None
  2813 ;; Return value:  Size  Location     Type
  2814 ;;                  1    wreg      void 
  2815 ;; Registers used:
  2816 ;;		None
  2817 ;; Tracked objects:
  2818 ;;		On entry : 0/0
  2819 ;;		On exit  : 0/0
  2820 ;;		Unchanged: 0/0
  2821 ;; Data sizes:     COMMON   BANK0   BANK1
  2822 ;;      Params:         0       0       0
  2823 ;;      Locals:         0       0       0
  2824 ;;      Temps:          0       0       0
  2825 ;;      Totals:         0       0       0
  2826 ;;Total ram usage:        0 bytes
  2827 ;; Hardware stack levels used: 1
  2828 ;; Hardware stack levels required when called: 1
  2829 ;; This function calls:
  2830 ;;		Nothing
  2831 ;; This function is called by:
  2832 ;;		_MAX7219_send
  2833 ;; This function uses a non-reentrant model
  2834 ;;
  2835                           
  2836     0573                     _MAX_CLK_setHigh:	
  2837                           ;psect for function _MAX_CLK_setHigh
  2838                           
  2839     0573                     l1152:	
  2840                           ;incstack = 0
  2841                           ; Regs used in _MAX_CLK_setHigh: []
  2842                           
  2843                           
  2844                           ;newmain14.c: 111:     RC2 = 1;
  2845     0573  1283               	bcf	3,5	;RP0=0, select bank0
  2846     0574  1303               	bcf	3,6	;RP1=0, select bank0
  2847     0575  1507               	bsf	7,2	;volatile
  2848     0576                     l71:
  2849     0576  0008               	return
  2850     0577                     __end_of_MAX_CLK_setHigh:
  2851                           
  2852                           	psect	text12
  2853     04A8                     __ptext12:	
  2854 ;; *************** function _COMAX7219_send *****************
  2855 ;; Defined at:
  2856 ;;		line 162 in file "newmain14.c"
  2857 ;; Parameters:    Size  Location     Type
  2858 ;;  reg             1    wreg     unsigned char 
  2859 ;;  dat             1    2[BANK0 ] unsigned char 
  2860 ;; Auto vars:     Size  Location     Type
  2861 ;;  reg             1    9[BANK0 ] unsigned char 
  2862 ;;  i               1   10[BANK0 ] unsigned char 
  2863 ;;  d               2    7[BANK0 ] unsigned short 
  2864 ;; Return value:  Size  Location     Type
  2865 ;;                  1    wreg      void 
  2866 ;; Registers used:
  2867 ;;		wreg, status,2, status,0, btemp+1, pclath, cstack
  2868 ;; Tracked objects:
  2869 ;;		On entry : 0/0
  2870 ;;		On exit  : 0/0
  2871 ;;		Unchanged: 0/0
  2872 ;; Data sizes:     COMMON   BANK0   BANK1
  2873 ;;      Params:         0       1       0
  2874 ;;      Locals:         0       4       0
  2875 ;;      Temps:          0       4       0
  2876 ;;      Totals:         0       9       0
  2877 ;;Total ram usage:        9 bytes
  2878 ;; Hardware stack levels used: 1
  2879 ;; Hardware stack levels required when called: 2
  2880 ;; This function calls:
  2881 ;;		_MAX_CLK2_setHigh
  2882 ;;		_MAX_CLK2_setLow
  2883 ;;		_MAX_DIN2_setHigh
  2884 ;;		_MAX_DIN2_setLow
  2885 ;;		_MAX_LAT2_setHigh
  2886 ;;		_MAX_LAT2_setLow
  2887 ;; This function is called by:
  2888 ;;		_initMAXs
  2889 ;;		_main
  2890 ;; This function uses a non-reentrant model
  2891 ;;
  2892                           
  2893     04A8                     _COMAX7219_send:	
  2894                           ;psect for function _COMAX7219_send
  2895                           
  2896                           
  2897                           ;incstack = 0
  2898                           ; Regs used in _COMAX7219_send: [wreg+status,2+status,0+btemp+1+pclath+cstack]
  2899                           ;COMAX7219_send@reg stored from wreg
  2900     04A8  1283               	bcf	3,5	;RP0=0, select bank0
  2901     04A9  1303               	bcf	3,6	;RP1=0, select bank0
  2902     04AA  00CD               	movwf	COMAX7219_send@reg
  2903     04AB                     l1188:
  2904                           
  2905                           ;newmain14.c: 162: void COMAX7219_send(uint8_t reg, uint8_t dat);newmain14.c: 163:     {
      +                          ;newmain14.c: 164:     uint16_t d=(reg<<8)|dat;
  2906     04AB  0846               	movf	COMAX7219_send@dat,w
  2907     04AC  00C7               	movwf	??_COMAX7219_send
  2908     04AD  01C8               	clrf	??_COMAX7219_send+1
  2909     04AE  084D               	movf	COMAX7219_send@reg,w
  2910     04AF  00C9               	movwf	??_COMAX7219_send+2
  2911     04B0  01CA               	clrf	??_COMAX7219_send+3
  2912     04B1  0849               	movf	??_COMAX7219_send+2,w
  2913     04B2  00CA               	movwf	??_COMAX7219_send+3
  2914     04B3  01C9               	clrf	??_COMAX7219_send+2
  2915     04B4  0847               	movf	??_COMAX7219_send,w
  2916     04B5  0449               	iorwf	??_COMAX7219_send+2,w
  2917     04B6  00CB               	movwf	COMAX7219_send@d
  2918     04B7  0848               	movf	??_COMAX7219_send+1,w
  2919     04B8  044A               	iorwf	??_COMAX7219_send+3,w
  2920     04B9  00CC               	movwf	COMAX7219_send@d+1
  2921     04BA                     l1190:
  2922                           
  2923                           ;newmain14.c: 165:      for (uint8_t i=0; i<16; i++)
  2924     04BA  01CE               	clrf	COMAX7219_send@i
  2925     04BB                     l1196:
  2926                           
  2927                           ;newmain14.c: 166:         {;newmain14.c: 167:         if (d & (0x8000>>i))
  2928     04BB  3000               	movlw	0
  2929     04BC  00C7               	movwf	??_COMAX7219_send
  2930     04BD  3080               	movlw	128
  2931     04BE  00C8               	movwf	??_COMAX7219_send+1
  2932     04BF  0A4E               	incf	COMAX7219_send@i,w
  2933     04C0  2CC4               	goto	u724
  2934     04C1                     u725:
  2935     04C1  1003               	clrc
  2936     04C2  0CC8               	rrf	??_COMAX7219_send+1,f
  2937     04C3  0CC7               	rrf	??_COMAX7219_send,f
  2938     04C4                     u724:
  2939     04C4  3EFF               	addlw	-1
  2940     04C5  1D03               	skipz
  2941     04C6  2CC1               	goto	u725
  2942     04C7  084B               	movf	COMAX7219_send@d,w
  2943     04C8  0547               	andwf	??_COMAX7219_send,w
  2944     04C9  00C9               	movwf	??_COMAX7219_send+2
  2945     04CA  084C               	movf	COMAX7219_send@d+1,w
  2946     04CB  0548               	andwf	??_COMAX7219_send+1,w
  2947     04CC  00CA               	movwf	??_COMAX7219_send+3
  2948     04CD  0849               	movf	??_COMAX7219_send+2,w
  2949     04CE  044A               	iorwf	??_COMAX7219_send+3,w
  2950     04CF  1903               	btfsc	3,2
  2951     04D0  2CD2               	goto	u731
  2952     04D1  2CD3               	goto	u730
  2953     04D2                     u731:
  2954     04D2  2CD7               	goto	l1200
  2955     04D3                     u730:
  2956     04D3                     l1198:
  2957                           
  2958                           ;newmain14.c: 168:             {MAX_DIN2_setHigh();}
  2959     04D3  118A  2583  118A   	fcall	_MAX_DIN2_setHigh
  2960     04D6  2CDA               	goto	l105
  2961     04D7                     l1200:
  2962                           
  2963                           ;newmain14.c: 170:             {MAX_DIN2_setLow();}
  2964     04D7  118A  257F  118A   	fcall	_MAX_DIN2_setLow
  2965     04DA                     l105:
  2966                           
  2967                           ;newmain14.c: 171:         MAX_CLK2_setHigh();
  2968     04DA  118A  258B  118A   	fcall	_MAX_CLK2_setHigh
  2969                           
  2970                           ;newmain14.c: 172:         MAX_CLK2_setLow();
  2971     04DD  118A  2587  118A   	fcall	_MAX_CLK2_setLow
  2972     04E0                     l1202:
  2973                           
  2974                           ;newmain14.c: 173:         }
  2975     04E0  3001               	movlw	1
  2976     04E1  00FF               	movwf	btemp+1
  2977     04E2  087F               	movf	btemp+1,w
  2978     04E3  1283               	bcf	3,5	;RP0=0, select bank0
  2979     04E4  1303               	bcf	3,6	;RP1=0, select bank0
  2980     04E5  07CE               	addwf	COMAX7219_send@i,f
  2981     04E6                     l1204:
  2982     04E6  3010               	movlw	16
  2983     04E7  024E               	subwf	COMAX7219_send@i,w
  2984     04E8  1C03               	skipc
  2985     04E9  2CEB               	goto	u741
  2986     04EA  2CEC               	goto	u740
  2987     04EB                     u741:
  2988     04EB  2CBB               	goto	l1196
  2989     04EC                     u740:
  2990     04EC                     l1206:
  2991                           
  2992                           ;newmain14.c: 174:     MAX_LAT2_setHigh();
  2993     04EC  118A  257B  118A   	fcall	_MAX_LAT2_setHigh
  2994                           
  2995                           ;newmain14.c: 175:     MAX_LAT2_setLow();
  2996     04EF  118A  2577  118A   	fcall	_MAX_LAT2_setLow
  2997     04F2                     l106:
  2998     04F2  0008               	return
  2999     04F3                     __end_of_COMAX7219_send:
  3000                           
  3001                           	psect	text13
  3002     0577                     __ptext13:	
  3003 ;; *************** function _MAX_LAT2_setLow *****************
  3004 ;; Defined at:
  3005 ;;		line 130 in file "newmain14.c"
  3006 ;; Parameters:    Size  Location     Type
  3007 ;;		None
  3008 ;; Auto vars:     Size  Location     Type
  3009 ;;		None
  3010 ;; Return value:  Size  Location     Type
  3011 ;;                  1    wreg      void 
  3012 ;; Registers used:
  3013 ;;		None
  3014 ;; Tracked objects:
  3015 ;;		On entry : 0/0
  3016 ;;		On exit  : 0/0
  3017 ;;		Unchanged: 0/0
  3018 ;; Data sizes:     COMMON   BANK0   BANK1
  3019 ;;      Params:         0       0       0
  3020 ;;      Locals:         0       0       0
  3021 ;;      Temps:          0       0       0
  3022 ;;      Totals:         0       0       0
  3023 ;;Total ram usage:        0 bytes
  3024 ;; Hardware stack levels used: 1
  3025 ;; Hardware stack levels required when called: 1
  3026 ;; This function calls:
  3027 ;;		Nothing
  3028 ;; This function is called by:
  3029 ;;		_COMAX7219_send
  3030 ;; This function uses a non-reentrant model
  3031 ;;
  3032                           
  3033     0577                     _MAX_LAT2_setLow:	
  3034                           ;psect for function _MAX_LAT2_setLow
  3035                           
  3036     0577                     l1162:	
  3037                           ;incstack = 0
  3038                           ; Regs used in _MAX_LAT2_setLow: []
  3039                           
  3040                           
  3041                           ;newmain14.c: 131:     RA1 = 0;
  3042     0577  1283               	bcf	3,5	;RP0=0, select bank0
  3043     0578  1303               	bcf	3,6	;RP1=0, select bank0
  3044     0579  1085               	bcf	5,1	;volatile
  3045     057A                     l86:
  3046     057A  0008               	return
  3047     057B                     __end_of_MAX_LAT2_setLow:
  3048                           
  3049                           	psect	text14
  3050     057B                     __ptext14:	
  3051 ;; *************** function _MAX_LAT2_setHigh *****************
  3052 ;; Defined at:
  3053 ;;		line 138 in file "newmain14.c"
  3054 ;; Parameters:    Size  Location     Type
  3055 ;;		None
  3056 ;; Auto vars:     Size  Location     Type
  3057 ;;		None
  3058 ;; Return value:  Size  Location     Type
  3059 ;;                  1    wreg      void 
  3060 ;; Registers used:
  3061 ;;		None
  3062 ;; Tracked objects:
  3063 ;;		On entry : 0/0
  3064 ;;		On exit  : 0/0
  3065 ;;		Unchanged: 0/0
  3066 ;; Data sizes:     COMMON   BANK0   BANK1
  3067 ;;      Params:         0       0       0
  3068 ;;      Locals:         0       0       0
  3069 ;;      Temps:          0       0       0
  3070 ;;      Totals:         0       0       0
  3071 ;;Total ram usage:        0 bytes
  3072 ;; Hardware stack levels used: 1
  3073 ;; Hardware stack levels required when called: 1
  3074 ;; This function calls:
  3075 ;;		Nothing
  3076 ;; This function is called by:
  3077 ;;		_COMAX7219_send
  3078 ;; This function uses a non-reentrant model
  3079 ;;
  3080                           
  3081     057B                     _MAX_LAT2_setHigh:	
  3082                           ;psect for function _MAX_LAT2_setHigh
  3083                           
  3084     057B                     l1166:	
  3085                           ;incstack = 0
  3086                           ; Regs used in _MAX_LAT2_setHigh: []
  3087                           
  3088                           
  3089                           ;newmain14.c: 139:     RA1 = 1;
  3090     057B  1283               	bcf	3,5	;RP0=0, select bank0
  3091     057C  1303               	bcf	3,6	;RP1=0, select bank0
  3092     057D  1485               	bsf	5,1	;volatile
  3093     057E                     l92:
  3094     057E  0008               	return
  3095     057F                     __end_of_MAX_LAT2_setHigh:
  3096                           
  3097                           	psect	text15
  3098     057F                     __ptext15:	
  3099 ;; *************** function _MAX_DIN2_setLow *****************
  3100 ;; Defined at:
  3101 ;;		line 106 in file "newmain14.c"
  3102 ;; Parameters:    Size  Location     Type
  3103 ;;		None
  3104 ;; Auto vars:     Size  Location     Type
  3105 ;;		None
  3106 ;; Return value:  Size  Location     Type
  3107 ;;                  1    wreg      void 
  3108 ;; Registers used:
  3109 ;;		None
  3110 ;; Tracked objects:
  3111 ;;		On entry : 0/0
  3112 ;;		On exit  : 0/0
  3113 ;;		Unchanged: 0/0
  3114 ;; Data sizes:     COMMON   BANK0   BANK1
  3115 ;;      Params:         0       0       0
  3116 ;;      Locals:         0       0       0
  3117 ;;      Temps:          0       0       0
  3118 ;;      Totals:         0       0       0
  3119 ;;Total ram usage:        0 bytes
  3120 ;; Hardware stack levels used: 1
  3121 ;; Hardware stack levels required when called: 1
  3122 ;; This function calls:
  3123 ;;		Nothing
  3124 ;; This function is called by:
  3125 ;;		_COMAX7219_send
  3126 ;; This function uses a non-reentrant model
  3127 ;;
  3128                           
  3129     057F                     _MAX_DIN2_setLow:	
  3130                           ;psect for function _MAX_DIN2_setLow
  3131                           
  3132     057F                     l1150:	
  3133                           ;incstack = 0
  3134                           ; Regs used in _MAX_DIN2_setLow: []
  3135                           
  3136                           
  3137                           ;newmain14.c: 107:     RA0 = 0;
  3138     057F  1283               	bcf	3,5	;RP0=0, select bank0
  3139     0580  1303               	bcf	3,6	;RP1=0, select bank0
  3140     0581  1005               	bcf	5,0	;volatile
  3141     0582                     l68:
  3142     0582  0008               	return
  3143     0583                     __end_of_MAX_DIN2_setLow:
  3144                           
  3145                           	psect	text16
  3146     0583                     __ptext16:	
  3147 ;; *************** function _MAX_DIN2_setHigh *****************
  3148 ;; Defined at:
  3149 ;;		line 98 in file "newmain14.c"
  3150 ;; Parameters:    Size  Location     Type
  3151 ;;		None
  3152 ;; Auto vars:     Size  Location     Type
  3153 ;;		None
  3154 ;; Return value:  Size  Location     Type
  3155 ;;                  1    wreg      void 
  3156 ;; Registers used:
  3157 ;;		None
  3158 ;; Tracked objects:
  3159 ;;		On entry : 0/0
  3160 ;;		On exit  : 0/0
  3161 ;;		Unchanged: 0/0
  3162 ;; Data sizes:     COMMON   BANK0   BANK1
  3163 ;;      Params:         0       0       0
  3164 ;;      Locals:         0       0       0
  3165 ;;      Temps:          0       0       0
  3166 ;;      Totals:         0       0       0
  3167 ;;Total ram usage:        0 bytes
  3168 ;; Hardware stack levels used: 1
  3169 ;; Hardware stack levels required when called: 1
  3170 ;; This function calls:
  3171 ;;		Nothing
  3172 ;; This function is called by:
  3173 ;;		_COMAX7219_send
  3174 ;; This function uses a non-reentrant model
  3175 ;;
  3176                           
  3177     0583                     _MAX_DIN2_setHigh:	
  3178                           ;psect for function _MAX_DIN2_setHigh
  3179                           
  3180     0583                     l1146:	
  3181                           ;incstack = 0
  3182                           ; Regs used in _MAX_DIN2_setHigh: []
  3183                           
  3184                           
  3185                           ;newmain14.c: 99:     RA0 = 1;
  3186     0583  1283               	bcf	3,5	;RP0=0, select bank0
  3187     0584  1303               	bcf	3,6	;RP1=0, select bank0
  3188     0585  1405               	bsf	5,0	;volatile
  3189     0586                     l62:
  3190     0586  0008               	return
  3191     0587                     __end_of_MAX_DIN2_setHigh:
  3192                           
  3193                           	psect	text17
  3194     0587                     __ptext17:	
  3195 ;; *************** function _MAX_CLK2_setLow *****************
  3196 ;; Defined at:
  3197 ;;		line 122 in file "newmain14.c"
  3198 ;; Parameters:    Size  Location     Type
  3199 ;;		None
  3200 ;; Auto vars:     Size  Location     Type
  3201 ;;		None
  3202 ;; Return value:  Size  Location     Type
  3203 ;;                  1    wreg      void 
  3204 ;; Registers used:
  3205 ;;		None
  3206 ;; Tracked objects:
  3207 ;;		On entry : 0/0
  3208 ;;		On exit  : 0/0
  3209 ;;		Unchanged: 0/0
  3210 ;; Data sizes:     COMMON   BANK0   BANK1
  3211 ;;      Params:         0       0       0
  3212 ;;      Locals:         0       0       0
  3213 ;;      Temps:          0       0       0
  3214 ;;      Totals:         0       0       0
  3215 ;;Total ram usage:        0 bytes
  3216 ;; Hardware stack levels used: 1
  3217 ;; Hardware stack levels required when called: 1
  3218 ;; This function calls:
  3219 ;;		Nothing
  3220 ;; This function is called by:
  3221 ;;		_COMAX7219_send
  3222 ;; This function uses a non-reentrant model
  3223 ;;
  3224                           
  3225     0587                     _MAX_CLK2_setLow:	
  3226                           ;psect for function _MAX_CLK2_setLow
  3227                           
  3228     0587                     l1158:	
  3229                           ;incstack = 0
  3230                           ; Regs used in _MAX_CLK2_setLow: []
  3231                           
  3232                           
  3233                           ;newmain14.c: 123:     RA2 = 0;
  3234     0587  1283               	bcf	3,5	;RP0=0, select bank0
  3235     0588  1303               	bcf	3,6	;RP1=0, select bank0
  3236     0589  1105               	bcf	5,2	;volatile
  3237     058A                     l80:
  3238     058A  0008               	return
  3239     058B                     __end_of_MAX_CLK2_setLow:
  3240                           
  3241                           	psect	text18
  3242     058B                     __ptext18:	
  3243 ;; *************** function _MAX_CLK2_setHigh *****************
  3244 ;; Defined at:
  3245 ;;		line 114 in file "newmain14.c"
  3246 ;; Parameters:    Size  Location     Type
  3247 ;;		None
  3248 ;; Auto vars:     Size  Location     Type
  3249 ;;		None
  3250 ;; Return value:  Size  Location     Type
  3251 ;;                  1    wreg      void 
  3252 ;; Registers used:
  3253 ;;		None
  3254 ;; Tracked objects:
  3255 ;;		On entry : 0/0
  3256 ;;		On exit  : 0/0
  3257 ;;		Unchanged: 0/0
  3258 ;; Data sizes:     COMMON   BANK0   BANK1
  3259 ;;      Params:         0       0       0
  3260 ;;      Locals:         0       0       0
  3261 ;;      Temps:          0       0       0
  3262 ;;      Totals:         0       0       0
  3263 ;;Total ram usage:        0 bytes
  3264 ;; Hardware stack levels used: 1
  3265 ;; Hardware stack levels required when called: 1
  3266 ;; This function calls:
  3267 ;;		Nothing
  3268 ;; This function is called by:
  3269 ;;		_COMAX7219_send
  3270 ;; This function uses a non-reentrant model
  3271 ;;
  3272                           
  3273     058B                     _MAX_CLK2_setHigh:	
  3274                           ;psect for function _MAX_CLK2_setHigh
  3275                           
  3276     058B                     l1154:	
  3277                           ;incstack = 0
  3278                           ; Regs used in _MAX_CLK2_setHigh: []
  3279                           
  3280                           
  3281                           ;newmain14.c: 115:     RA2 = 1;
  3282     058B  1283               	bcf	3,5	;RP0=0, select bank0
  3283     058C  1303               	bcf	3,6	;RP1=0, select bank0
  3284     058D  1505               	bsf	5,2	;volatile
  3285     058E                     l74:
  3286     058E  0008               	return
  3287     058F                     __end_of_MAX_CLK2_setHigh:
  3288                           
  3289                           	psect	text19
  3290     0544                     __ptext19:	
  3291 ;; *************** function _isr *****************
  3292 ;; Defined at:
  3293 ;;		line 264 in file "newmain14.c"
  3294 ;; Parameters:    Size  Location     Type
  3295 ;;		None
  3296 ;; Auto vars:     Size  Location     Type
  3297 ;;		None
  3298 ;; Return value:  Size  Location     Type
  3299 ;;                  1    wreg      void 
  3300 ;; Registers used:
  3301 ;;		None
  3302 ;; Tracked objects:
  3303 ;;		On entry : 0/0
  3304 ;;		On exit  : 0/0
  3305 ;;		Unchanged: 0/0
  3306 ;; Data sizes:     COMMON   BANK0   BANK1
  3307 ;;      Params:         0       0       0
  3308 ;;      Locals:         0       0       0
  3309 ;;      Temps:          0       2       0
  3310 ;;      Totals:         0       2       0
  3311 ;;Total ram usage:        2 bytes
  3312 ;; Hardware stack levels used: 1
  3313 ;; This function calls:
  3314 ;;		Nothing
  3315 ;; This function is called by:
  3316 ;;		Interrupt level 1
  3317 ;; This function uses a non-reentrant model
  3318 ;;
  3319                           
  3320     0544                     _isr:	
  3321                           ;psect for function _isr
  3322                           
  3323     0544                     i1l1286:
  3324                           
  3325                           ;newmain14.c: 265:     if (INTCONbits.TMR0IF) {
  3326     0544  1D0B               	btfss	11,2	;volatile
  3327     0545  2D47               	goto	u87_21
  3328     0546  2D48               	goto	u87_20
  3329     0547                     u87_21:
  3330     0547  2D49               	goto	i1l133
  3331     0548                     u87_20:
  3332     0548                     i1l1288:
  3333                           
  3334                           ;newmain14.c: 267:         INTCONbits.TMR0IF = 0;
  3335     0548  110B               	bcf	11,2	;volatile
  3336     0549                     i1l133:
  3337     0549  0845               	movf	??_isr+1,w
  3338     054A  008A               	movwf	10
  3339     054B  0E44               	swapf	??_isr,w
  3340     054C  0083               	movwf	3
  3341     054D  0EFE               	swapf	btemp,f
  3342     054E  0E7E               	swapf	btemp,w
  3343     054F  0009               	retfie
  3344     0550                     __end_of_isr:
  3345     007E                     btemp	set	126	;btemp
  3346     007E                     wtemp0	set	126
  3347                           
  3348                           	psect	intentry
  3349     0004                     __pintentry:	
  3350                           ;incstack = 0
  3351                           ; Regs used in _isr: []
  3352                           
  3353     0004                     interrupt_function:
  3354     007E                     saved_w	set	btemp
  3355     0004  00FE               	movwf	btemp
  3356     0005  0E03               	swapf	3,w
  3357     0006  1283               	bcf	3,5	;RP0=0, select bank0
  3358     0007  1303               	bcf	3,6	;RP1=0, select bank0
  3359     0008  00C4               	movwf	??_isr
  3360     0009  080A               	movf	10,w
  3361     000A  00C5               	movwf	??_isr+1
  3362     000B  118A  2D44         	ljmp	_isr
  3363                           
  3364                           	psect	config
  3365                           
  3366                           ;Config register CONFIG @ 0x2007
  3367                           ;	Oscillator Selection bits
  3368                           ;	FOSC = HS, HS oscillator
  3369                           ;	Watchdog Timer Enable bit
  3370                           ;	WDTE = OFF, WDT disabled
  3371                           ;	Power-up Timer Enable bit
  3372                           ;	PWRTE = ON, PWRT enabled
  3373                           ;	FLASH Program Memory Code Protection bit
  3374                           ;	CP = OFF, Code protection off
  3375                           ;	Brown-out Reset Enable bit
  3376                           ;	BOREN = ON, BOR enabled
  3377     2007                     	org	8199
  3378     2007  3FF2               	dw	16370

Data Sizes:
    Strings     0
    Constant    0
    Data        7
    BSS         36
    Persistent  0
    Stack       0

Auto Spaces:
    Space          Size  Autos    Used
    COMMON            0      0       0
    BANK0            94     15      58
    BANK1            94      0       0

Pointer List with Targets:

    None.

Critical Paths under _main in COMMON

    None.

Critical Paths under _isr in COMMON

    None.

Critical Paths under _main in BANK0

    _main->_COMAX7219_send
    _main->_MAX7219_send
    _initMAXs->_COMAX7219_send
    _initMAXs->_MAX7219_send

Critical Paths under _isr in BANK0

    None.

Critical Paths under _main in BANK1

    None.

Critical Paths under _isr in BANK1

    None.

Call Graph Tables:

 ---------------------------------------------------------------------------------
 (Depth) Function   	        Calls       Base Space   Used Autos Params    Refs
 ---------------------------------------------------------------------------------
 (0) _main                                                 4     4      0    4462
                                             11 BANK0      4     4      0
                     _COMAX7219_send
                       _MAX7219_send
                           _initMAXs
                       _receive_byte
                          _send_byte
                        _setup_timer
 ---------------------------------------------------------------------------------
 (1) _setup_timer                                          0     0      0       0
 ---------------------------------------------------------------------------------
 (1) _send_byte                                            4     4      0     158
                                              2 BANK0      4     4      0
 ---------------------------------------------------------------------------------
 (1) _receive_byte                                         4     4      0     116
                                              2 BANK0      4     4      0
 ---------------------------------------------------------------------------------
 (1) _initMAXs                                             0     0      0    2094
                     _COMAX7219_send
                       _MAX7219_send
 ---------------------------------------------------------------------------------
 (2) _MAX7219_send                                         9     8      1    1047
                                              2 BANK0      9     8      1
                    _MAX_CLK_setHigh
                     _MAX_CLK_setLow
                    _MAX_DIN_setHigh
                     _MAX_DIN_setLow
                    _MAX_LAT_setHigh
                     _MAX_LAT_setLow
 ---------------------------------------------------------------------------------
 (3) _MAX_LAT_setLow                                       0     0      0       0
 ---------------------------------------------------------------------------------
 (3) _MAX_LAT_setHigh                                      0     0      0       0
 ---------------------------------------------------------------------------------
 (3) _MAX_DIN_setLow                                       0     0      0       0
 ---------------------------------------------------------------------------------
 (3) _MAX_DIN_setHigh                                      0     0      0       0
 ---------------------------------------------------------------------------------
 (3) _MAX_CLK_setLow                                       0     0      0       0
 ---------------------------------------------------------------------------------
 (3) _MAX_CLK_setHigh                                      0     0      0       0
 ---------------------------------------------------------------------------------
 (2) _COMAX7219_send                                       9     8      1    1047
                                              2 BANK0      9     8      1
                   _MAX_CLK2_setHigh
                    _MAX_CLK2_setLow
                   _MAX_DIN2_setHigh
                    _MAX_DIN2_setLow
                   _MAX_LAT2_setHigh
                    _MAX_LAT2_setLow
 ---------------------------------------------------------------------------------
 (3) _MAX_LAT2_setLow                                      0     0      0       0
 ---------------------------------------------------------------------------------
 (3) _MAX_LAT2_setHigh                                     0     0      0       0
 ---------------------------------------------------------------------------------
 (3) _MAX_DIN2_setLow                                      0     0      0       0
 ---------------------------------------------------------------------------------
 (3) _MAX_DIN2_setHigh                                     0     0      0       0
 ---------------------------------------------------------------------------------
 (3) _MAX_CLK2_setLow                                      0     0      0       0
 ---------------------------------------------------------------------------------
 (3) _MAX_CLK2_setHigh                                     0     0      0       0
 ---------------------------------------------------------------------------------
 Estimated maximum stack depth 3
 ---------------------------------------------------------------------------------
 (Depth) Function   	        Calls       Base Space   Used Autos Params    Refs
 ---------------------------------------------------------------------------------
 (4) _isr                                                  2     2      0       0
                                              0 BANK0      2     2      0
 ---------------------------------------------------------------------------------
 Estimated maximum stack depth 4
 ---------------------------------------------------------------------------------

 Call Graph Graphs:

 _main (ROOT)
   _COMAX7219_send
     _MAX_CLK2_setHigh
     _MAX_CLK2_setLow
     _MAX_DIN2_setHigh
     _MAX_DIN2_setLow
     _MAX_LAT2_setHigh
     _MAX_LAT2_setLow
   _MAX7219_send
     _MAX_CLK_setHigh
     _MAX_CLK_setLow
     _MAX_DIN_setHigh
     _MAX_DIN_setLow
     _MAX_LAT_setHigh
     _MAX_LAT_setLow
   _initMAXs
     _COMAX7219_send
     _MAX7219_send
   _receive_byte
   _send_byte
   _setup_timer

 _isr (ROOT)

 Address spaces:
Name               Size   Autos  Total    Cost      Usage
SFR3                 0      0       0       4        0.0%
BITSFR3              0      0       0       4        0.0%
SFR2                 0      0       0       5        0.0%
BITSFR2              0      0       0       5        0.0%
BANK1               5E      0       0       7        0.0%
BITBANK1            5E      0       0       6        0.0%
SFR1                 0      0       0       2        0.0%
BITSFR1              0      0       0       2        0.0%
BANK0               5E      F      3A       5       61.7%
BITBANK0            5E      0       0       4        0.0%
SFR0                 0      0       0       1        0.0%
BITSFR0              0      0       0       1        0.0%
COMMON               0      0       0       1        0.0%
BITCOMMON            0      0       0       0        0.0%
CODE                 0      0       0       0        0.0%
DATA                 0      0      3A       8        0.0%
ABS                  0      0      3A       3        0.0%
NULL                 0      0       0       0        0.0%
STACK                0      0       0       2        0.0%


Microchip Technology PIC Macro Assembler V2.46 build 20240104201356 
Symbol Table                                                                                   Thu Sep 12 22:24:40 2024

                       _i 003E                        l62 0586                        l71 0576  
                      l80 058A                        l65 056A                        l74 058E  
                      l59 056E                        l83 0562                        l68 0582  
                      l92 057E                        l77 0572                        l86 057A  
                      l89 0566                        l98 048F                        l99 04A7  
                      fsr 0004                       l120 040E                       l112 0543  
                     l105 04DA                       l106 04F2                       l140 0094  
                     l109 0533                       l117 0409                       l127 045C  
                     l143 00AD                       l152 00F8                       l161 0143  
                     l170 01A3                       l146 00C6                       l155 0111  
                     l164 0171                       l173 01BC                       l149 00DF  
                     l158 012A                       l167 018A                       _BCC 003F  
                     l186 0350                       l179 02D9                       _RA0 0028  
                     _RA1 0029                       _RA2 002A                       _RC0 0038  
                     _RC1 0039                       _RC2 003A                       u700 0488  
                     u701 0487                       u710 04A1                       u711 04A0  
                     u800 03DA                       u730 04D3                       u810 03EF  
                     u731 04D2                       u811 03EE                       u740 04EC  
                     u724 04C4                       u820 03F7                       u900 00A4  
                     u741 04EB                       u725 04C1                       u821 03F3  
                     u901 00A3                       u910 00AA                       u911 00A9  
                     u840 0412                       u760 03C8                       u920 00BD  
                     u841 0411                       u761 03C4                       u921 00BC  
                     u834 03FA                       u754 03BE                       u930 00C3  
                     u755 03BC                       u931 00C2                       u860 0449  
                     u940 00D6                       u861 0448                       u941 00D5  
                     u694 0479                       u854 042F                       u790 03D9  
                     u774 03CB                       u950 00DC                       u695 0476  
                     u855 042D                       u791 03D7                       u951 00DB  
                     u784 03D1                       u960 00EF                       u880 008B  
                     u785 03CF                       u961 00EE                       u881 008A  
                     u970 00F5                       u890 0091                       u971 00F4  
                     u891 0090                       u980 0108                       u981 0107  
                     u990 010E                       u991 010D                       _isr 0544  
                     fsr0 0004                       indf 0000   __end_of_MAX_LAT_setHigh 0567  
                    l1200 04D7                      l1202 04E0                      l1210 0534  
                    l1204 04E6                      l1220 0540                      l1212 0537  
                    l1300 004A                      l1150 057F                      l1206 04EC  
                    l1230 03AF                      l1222 0541                      l1214 053A  
                    l1310 0054                      l1302 004C                      l1152 0573  
                    l1144 056B                      l1160 055F                      l1208 04F3  
                    l1240 03DD                      l1232 03B5                      l1224 0542  
                    l1216 053B                      l1400 0101                      l1320 005E  
                    l1312 0056                      l1304 004E                      l1154 058B  
                    l1146 0583                      l1162 0577                      l1170 046F  
                    l1250 0400                      l1242 03E3                      l1226 03AD  
                    l1218 053F                      l1410 0121                      l1402 0108  
                    l1330 0068                      l1322 0060                      l1314 0058  
                    l1306 0050                      l1156 056F                      l1148 0567  
                    l1164 0563                      l1180 048C                      l1252 0403  
                    l1244 03E9                      l1236 03B8                      l1228 03AE  
                    l1500 0248                      l1420 0140                      l1412 0127  
                    l1404 010E                      l1340 0072                      l1332 006A  
                    l1324 0062                      l1316 005A                      l1308 0052  
                    l1158 0587                      l1166 057B                      l1190 04BA  
                    l1182 0495                      l1270 043F                      l1254 040A  
                    l1246 03EF                      l1238 03CB                      l1510 0262  
                    l1502 024A                      l1430 016E                      l1422 0145  
                    l1414 012C                      l1406 0113                      l1350 007C  
                    l1342 0074                      l1334 006C                      l1326 0064  
                    l1318 005C                      l1184 049B                      l1176 0470  
                    l1168 0460                      l1280 0458                      l1272 0443  
                    l1264 041C                      l1256 0412                      l1248 03FA  
                    l1600 035A                      l1520 0282                      l1512 026A  
                    l1504 0252                      l1440 018C                      l1432 0173  
                    l1424 0165                      l1416 0133                      l1408 011A  
                    l1360 0086                      l1352 007E                      l1344 0076  
                    l1336 006E                      l1328 0066                      l1186 04A1  
                    l1178 0488                      l1282 045B                      l1274 0449  
                    l1266 0422                      l1258 0419                      l1610 0378  
                    l1602 0360                      l1530 029C                      l1522 0284  
                    l1514 026C                      l1506 0254                      l1450 01AC  
                    l1442 0193                      l1434 017A                      l1426 0168  
                    l1418 013A                      l1370 00A4                      l1362 008B  
                    l1354 0080                      l1346 0078                      l1338 0070  
                    l1290 0035                      l1196 04BB                      l1188 04AB  
                    l1276 044F                      l1268 0436                      l1620 0396  
                    l1612 037E                      l1604 0366                      l1540 02BE  
                    l1532 02A6                      l1524 028C                      l1516 0274  
                    l1508 025C                      l1452 01B3                      l1444 019A  
                    l1436 0181                      l1428 0168                      l1380 00C3  
                    l1372 00AA                      l1364 0091                      l1356 0082  
                    l1348 007A                      l1292 003D                      l1198 04D3  
                    l1278 0452                      l1622 039C                      l1614 0384  
                    l1606 036C                      l1550 02D8                      l1542 02C4  
                    l1534 02AC                      l1526 0292                      l1518 027A  
                    l1470 01EA                      l1462 01D6                      l1454 01B9  
                    l1446 01A0                      l1438 0187                      l1390 00E1  
                    l1382 00C8                      l1374 00AF                      l1366 0096  
                    l1358 0084                      l1294 0040                      l1624 03A2  
                    l1616 038A                      l1608 0372                      l1560 02EA  
                    l1552 02DA                      l1544 02CC                      l1536 02B4  
                    l1528 029A                      l1480 020A                      l1472 01F2  
                    l1464 01DC                      l1456 01BE                      l1448 01A5  
                    l1392 00E8                      l1384 00CF                      l1376 00B6  
                    l1368 009D                      l1296 0043                      l1618 0390  
                    l1626 03A7                      l1570 02FE                      l1554 02DC  
                    l1546 02CE                      l1538 02B6                      l1490 0228  
                    l1482 0210                      l1474 01F8                      l1466 01E2  
                    l1458 01CE                      l1394 00EF                      l1386 00D6  
                    l1378 00BD                      l1298 0046                      l1580 0320  
                    l1572 0306                      l1564 02EF                      l1548 02D2  
                    l1492 0230                      l1484 0218                      l1476 0200  
                    l1468 01E8                      l1396 00F5                      l1388 00DC  
                    l1590 0342                      l1582 0326                      l1574 0314  
                    l1566 02F5                      l1558 02E3                      l1494 0232  
                    l1486 021A                      l1478 0202                      l1398 00FA  
                    l1592 0346                      l1576 031A                      l1584 0328  
                    l1568 02FA                      l1496 023A                      l1488 0222  
                    l1594 0348                      l1586 032E                      l1578 031E  
                    l1498 0240                      l1596 034E                      l1588 033C  
                    l1598 0354                      ?_isr 0044                      u1000 0121  
                    u1001 0120                      u1010 0127                      u1011 0126  
                    u1100 01B9                      u1020 013A                      u1101 01B8  
                    u1021 0139                      u1110 01D5                      u1030 0140  
                    u1111 01D4                      u1031 013F                      u1200 032E  
                    u1120 01E2                      u1040 016E                      u1201 032D  
                    u1121 01E1                      u1041 016D                      u1210 033C  
                    u1130 02D8                      u1050 0181                      u1211 033B  
                    u1131 02D7                      u1051 0180                      u1300 037E  
                    u1220 0342                      u1140 02E2                      u1060 0187  
                    u1301 037D                      u1221 0341                      u1141 02E1  
                    u1061 0186                      u1310 0384                      u1230 034E  
                    u1150 02F5                      u1070 019A                      u1311 0383  
                    u1231 034D                      u1151 02F4                      u1071 0199  
                    u1320 038A                      u1240 035A                      u1160 0306  
                    u1080 01A0                      u1321 0389                      u1241 0359  
                    u1161 0305                      u1081 019F                      u1330 0390  
                    u1250 0360                      u1170 0314                      u1090 01B3  
                    u1331 038F                      u1251 035F                      u1171 0313  
                    u1091 01B2                      u1340 0396                      u1260 0366  
                    u1180 031A                      u1341 0395                      u1261 0365  
                    u1181 0319                      u1350 039C                      u1270 036C  
                    u1190 0326                      u1407 0407                      u1351 039B  
                    u1271 036B                      u1191 0325                      u1360 03A2  
                    u1280 0372                      u1417 0416                      u1361 03A1  
                    u1281 0371                      u1290 0378                      u1427 0420  
                    u1291 0377                      u1437 044D                      u1447 0456  
                    u1377 03B3                      u1387 03E1                      u1397 03FE  
                    _TMR0 0001                      _dMil 0059                      _nSTX 0041  
                    _main 0035                      btemp 007E          ?_MAX_LAT2_setLow 0044  
                    start 000D          ?_MAX_CLK_setHigh 0044          ?_MAX_DIN_setHigh 0044  
                   ??_isr 0044            _COMAX7219_send 04A8                     ?_main 0044  
                   i1l133 0549                     _TRISA 0085                     _TRISB 0086  
                   _TRISC 0087                     u87_20 0548                     u87_21 0547  
         send_byte@parity 0047                     _nbyte 0042         ?_MAX_LAT2_setHigh 0044  
                   pclath 000A                     status 0003                     wtemp0 007E  
      ??_MAX_LAT2_setHigh 0000      __end_of_MAX7219_send 04A8           __initialization 000F  
  __end_of_COMAX7219_send 04F3              __end_of_main 03AA             receive_byte@i 0049  
                  ??_main 004F          ?_MAX_LAT_setHigh 0044                    i1l1286 0544  
                  i1l1288 0548           ?_COMAX7219_send 0046          __end_of_initMAXs 0534  
        receive_byte@data 0047                    saved_w 007E              ?_setup_timer 0044  
 __end_of__initialization 0032             ?_receive_byte 0044            __pcstackCOMMON 0000  
            __pidataBANK0 0558            _OPTION_REGbits 0081                __pbssBANK0 0020  
          ??_receive_byte 0046                __pmaintext 0035                __pintentry 0004  
            _MAX7219_send 045D                _sMillosold 0057                _sMillosnew 0056  
               ?_initMAXs 0044           COMAX7219_send@d 004B           COMAX7219_send@i 004E  
                 _cMillon 0058            _MAX_CLK_setLow 056F            _MAX_DIN_setLow 0567  
        _MAX_CLK2_setHigh 058B                   __ptext1 0534                   __ptext2 03AA  
                 __ptext3 040A                   __ptext4 04F3                   __ptext5 045D  
                 __ptext6 055F                   __ptext7 0563                   __ptext8 0567  
                 __ptext9 056B                   _sMilold 0055                   _sMilnew 0054  
        _MAX_DIN2_setHigh 0583                   clrloop0 0551      end_of_initialization 0032  
              ??_initMAXs 0000         __end_of_send_byte 040A          ??_COMAX7219_send 0047  
          _MAX_LAT_setLow 055F         ??_MAX_CLK2_setLow 0000    __end_of_MAX_CLK_setLow 0573  
       ??_MAX_DIN2_setLow 0000    __end_of_MAX_DIN_setLow 056B      __end_of_receive_byte 045D  
               _PORTCbits 0007    __end_of_MAX_LAT_setLow 0563             send_byte@data 0048  
         ?_MAX_CLK_setLow 0044           ?_MAX_DIN_setLow 0044         ??_MAX_LAT2_setLow 0000  
     start_initialization 000F               __end_of_isr 0550         ??_MAX_CLK_setHigh 0000  
       COMAX7219_send@dat 0046         COMAX7219_send@reg 004D         ??_MAX_DIN_setHigh 0000  
         ?_MAX_LAT_setLow 0044          _MAX_LAT2_setHigh 057B               __pdataBANK0 0053  
               ___latbits 0001             __pcstackBANK0 0044  __end_of_MAX_CLK2_setHigh 058F  
__end_of_MAX_DIN2_setHigh 0587         ??_MAX_LAT_setHigh 0000                send_byte@i 0049  
               _byteValue 0043             MAX7219_send@d 004B             MAX7219_send@i 004E  
         _MAX_CLK2_setLow 0587           _MAX_DIN2_setLow 057F         interrupt_function 0004  
            _receive_byte 040A                 clear_ram0 0550                 _send_byte 03AA  
               _zerosleft 0040             ??_setup_timer 0000          ??_MAX_CLK_setLow 0000  
        ??_MAX_DIN_setLow 0000                ?_send_byte 0044           _MAX_LAT2_setLow 0577  
         _MAX_CLK_setHigh 0573           MAX7219_send@dat 0046           MAX7219_send@reg 004D  
         _MAX_DIN_setHigh 056B   __end_of_MAX_CLK2_setLow 058B   __end_of_MAX_DIN2_setLow 0583  
                _flagCien 0053          ??_MAX_LAT_setLow 0000                  __ptext10 056F  
                __ptext11 0573                  __ptext12 04A8                  __ptext13 0577  
                __ptext14 057B                  __ptext15 057F                  __ptext16 0583  
                __ptext17 0587                  __ptext18 058B                  __ptext19 0544  
                _bufferin 0020  __end_of_MAX_LAT2_setHigh 057F                  _initMAXs 04F3  
      receive_byte@parity 0048       __end_of_setup_timer 0544             ?_MAX7219_send 0046  
              _INTCONbits 000B                  intlevel1 0000           _MAX_LAT_setHigh 0563  
       ?_MAX_CLK2_setHigh 0044   __end_of_MAX_LAT2_setLow 057B               ??_send_byte 0046  
      ??_MAX_CLK2_setHigh 0000         ?_MAX_DIN2_setHigh 0044   __end_of_MAX_CLK_setHigh 0577  
      ??_MAX_DIN2_setHigh 0000   __end_of_MAX_DIN_setHigh 056F            ??_MAX7219_send 0047  
        ?_MAX_CLK2_setLow 0044          ?_MAX_DIN2_setLow 0044               _setup_timer 0534  
